

Microchip Technology PIC LITE Macro Assembler V1.35 build -356382666 
                                                                                               Wed Jan 02 14:10:35 2019

Microchip Technology Omniscient Code Generator v1.35 (Free mode) build 201507080246
     1                           	processor	12F1822
     2                           	opt	pw 120
     3                           	opt	lm
     4                           	psect	nvCOMMON,global,class=COMMON,space=1,delta=1
     5                           	psect	cinit,global,class=CODE,merge=1,delta=2
     6                           	psect	bssCOMMON,global,class=COMMON,space=1,delta=1
     7                           	psect	cstackCOMMON,global,class=COMMON,space=1,delta=1
     8                           	psect	maintext,global,class=CODE,merge=1,split=1,delta=2
     9                           	psect	text1,local,class=CODE,merge=1,delta=2
    10                           	psect	text2,local,class=CODE,merge=1,delta=2
    11                           	psect	text3,local,class=CODE,merge=1,delta=2
    12                           	psect	text4,local,class=CODE,merge=1,delta=2
    13                           	psect	text5,local,class=CODE,merge=1,delta=2
    14                           	psect	text6,local,class=CODE,merge=1,delta=2
    15                           	psect	text7,local,class=CODE,merge=1,delta=2
    16                           	psect	text8,local,class=CODE,merge=1,delta=2
    17                           	psect	text9,local,class=CODE,merge=1,delta=2
    18                           	psect	text10,local,class=CODE,merge=1,delta=2
    19                           	psect	text11,local,class=CODE,merge=1,delta=2
    20                           	psect	text12,local,class=CODE,merge=1,delta=2
    21                           	psect	text13,local,class=CODE,merge=1,delta=2
    22                           	psect	text14,local,class=CODE,merge=1,delta=2
    23                           	psect	text15,local,class=CODE,merge=1,delta=2
    24                           	dabs	1,0x7E,2
    25  0000                     	;# 
    26  0001                     	;# 
    27  0002                     	;# 
    28  0003                     	;# 
    29  0004                     	;# 
    30  0005                     	;# 
    31  0006                     	;# 
    32  0007                     	;# 
    33  0008                     	;# 
    34  0009                     	;# 
    35  000A                     	;# 
    36  000B                     	;# 
    37  000C                     	;# 
    38  0011                     	;# 
    39  0012                     	;# 
    40  0015                     	;# 
    41  0016                     	;# 
    42  0016                     	;# 
    43  0017                     	;# 
    44  0018                     	;# 
    45  0019                     	;# 
    46  001A                     	;# 
    47  001B                     	;# 
    48  001C                     	;# 
    49  001E                     	;# 
    50  001F                     	;# 
    51  008C                     	;# 
    52  0091                     	;# 
    53  0092                     	;# 
    54  0095                     	;# 
    55  0096                     	;# 
    56  0097                     	;# 
    57  0098                     	;# 
    58  0099                     	;# 
    59  009A                     	;# 
    60  009B                     	;# 
    61  009B                     	;# 
    62  009C                     	;# 
    63  009D                     	;# 
    64  009E                     	;# 
    65  010C                     	;# 
    66  0111                     	;# 
    67  0112                     	;# 
    68  0115                     	;# 
    69  0116                     	;# 
    70  0117                     	;# 
    71  0118                     	;# 
    72  0119                     	;# 
    73  011A                     	;# 
    74  011B                     	;# 
    75  011D                     	;# 
    76  011D                     	;# 
    77  018C                     	;# 
    78  0191                     	;# 
    79  0191                     	;# 
    80  0192                     	;# 
    81  0193                     	;# 
    82  0193                     	;# 
    83  0193                     	;# 
    84  0194                     	;# 
    85  0195                     	;# 
    86  0196                     	;# 
    87  0199                     	;# 
    88  019A                     	;# 
    89  019B                     	;# 
    90  019B                     	;# 
    91  019B                     	;# 
    92  019B                     	;# 
    93  019C                     	;# 
    94  019C                     	;# 
    95  019D                     	;# 
    96  019E                     	;# 
    97  019F                     	;# 
    98  020C                     	;# 
    99  0211                     	;# 
   100  0211                     	;# 
   101  0212                     	;# 
   102  0212                     	;# 
   103  0213                     	;# 
   104  0213                     	;# 
   105  0214                     	;# 
   106  0214                     	;# 
   107  0215                     	;# 
   108  0215                     	;# 
   109  0215                     	;# 
   110  0216                     	;# 
   111  0216                     	;# 
   112  0217                     	;# 
   113  0217                     	;# 
   114  0291                     	;# 
   115  0291                     	;# 
   116  0292                     	;# 
   117  0293                     	;# 
   118  0294                     	;# 
   119  0295                     	;# 
   120  0295                     	;# 
   121  0296                     	;# 
   122  0391                     	;# 
   123  0392                     	;# 
   124  0393                     	;# 
   125  039A                     	;# 
   126  039C                     	;# 
   127  039D                     	;# 
   128  039E                     	;# 
   129  039F                     	;# 
   130  0FE4                     	;# 
   131  0FE5                     	;# 
   132  0FE6                     	;# 
   133  0FE7                     	;# 
   134  0FE8                     	;# 
   135  0FE9                     	;# 
   136  0FEA                     	;# 
   137  0FEB                     	;# 
   138  0FED                     	;# 
   139  0FEE                     	;# 
   140  0FEF                     	;# 
   141  0000                     	;# 
   142  0001                     	;# 
   143  0002                     	;# 
   144  0003                     	;# 
   145  0004                     	;# 
   146  0005                     	;# 
   147  0006                     	;# 
   148  0007                     	;# 
   149  0008                     	;# 
   150  0009                     	;# 
   151  000A                     	;# 
   152  000B                     	;# 
   153  000C                     	;# 
   154  0011                     	;# 
   155  0012                     	;# 
   156  0015                     	;# 
   157  0016                     	;# 
   158  0016                     	;# 
   159  0017                     	;# 
   160  0018                     	;# 
   161  0019                     	;# 
   162  001A                     	;# 
   163  001B                     	;# 
   164  001C                     	;# 
   165  001E                     	;# 
   166  001F                     	;# 
   167  008C                     	;# 
   168  0091                     	;# 
   169  0092                     	;# 
   170  0095                     	;# 
   171  0096                     	;# 
   172  0097                     	;# 
   173  0098                     	;# 
   174  0099                     	;# 
   175  009A                     	;# 
   176  009B                     	;# 
   177  009B                     	;# 
   178  009C                     	;# 
   179  009D                     	;# 
   180  009E                     	;# 
   181  010C                     	;# 
   182  0111                     	;# 
   183  0112                     	;# 
   184  0115                     	;# 
   185  0116                     	;# 
   186  0117                     	;# 
   187  0118                     	;# 
   188  0119                     	;# 
   189  011A                     	;# 
   190  011B                     	;# 
   191  011D                     	;# 
   192  011D                     	;# 
   193  018C                     	;# 
   194  0191                     	;# 
   195  0191                     	;# 
   196  0192                     	;# 
   197  0193                     	;# 
   198  0193                     	;# 
   199  0193                     	;# 
   200  0194                     	;# 
   201  0195                     	;# 
   202  0196                     	;# 
   203  0199                     	;# 
   204  019A                     	;# 
   205  019B                     	;# 
   206  019B                     	;# 
   207  019B                     	;# 
   208  019B                     	;# 
   209  019C                     	;# 
   210  019C                     	;# 
   211  019D                     	;# 
   212  019E                     	;# 
   213  019F                     	;# 
   214  020C                     	;# 
   215  0211                     	;# 
   216  0211                     	;# 
   217  0212                     	;# 
   218  0212                     	;# 
   219  0213                     	;# 
   220  0213                     	;# 
   221  0214                     	;# 
   222  0214                     	;# 
   223  0215                     	;# 
   224  0215                     	;# 
   225  0215                     	;# 
   226  0216                     	;# 
   227  0216                     	;# 
   228  0217                     	;# 
   229  0217                     	;# 
   230  0291                     	;# 
   231  0291                     	;# 
   232  0292                     	;# 
   233  0293                     	;# 
   234  0294                     	;# 
   235  0295                     	;# 
   236  0295                     	;# 
   237  0296                     	;# 
   238  0391                     	;# 
   239  0392                     	;# 
   240  0393                     	;# 
   241  039A                     	;# 
   242  039C                     	;# 
   243  039D                     	;# 
   244  039E                     	;# 
   245  039F                     	;# 
   246  0FE4                     	;# 
   247  0FE5                     	;# 
   248  0FE6                     	;# 
   249  0FE7                     	;# 
   250  0FE8                     	;# 
   251  0FE9                     	;# 
   252  0FEA                     	;# 
   253  0FEB                     	;# 
   254  0FED                     	;# 
   255  0FEE                     	;# 
   256  0FEF                     	;# 
   257  0000                     	;# 
   258  0001                     	;# 
   259  0002                     	;# 
   260  0003                     	;# 
   261  0004                     	;# 
   262  0005                     	;# 
   263  0006                     	;# 
   264  0007                     	;# 
   265  0008                     	;# 
   266  0009                     	;# 
   267  000A                     	;# 
   268  000B                     	;# 
   269  000C                     	;# 
   270  0011                     	;# 
   271  0012                     	;# 
   272  0015                     	;# 
   273  0016                     	;# 
   274  0016                     	;# 
   275  0017                     	;# 
   276  0018                     	;# 
   277  0019                     	;# 
   278  001A                     	;# 
   279  001B                     	;# 
   280  001C                     	;# 
   281  001E                     	;# 
   282  001F                     	;# 
   283  008C                     	;# 
   284  0091                     	;# 
   285  0092                     	;# 
   286  0095                     	;# 
   287  0096                     	;# 
   288  0097                     	;# 
   289  0098                     	;# 
   290  0099                     	;# 
   291  009A                     	;# 
   292  009B                     	;# 
   293  009B                     	;# 
   294  009C                     	;# 
   295  009D                     	;# 
   296  009E                     	;# 
   297  010C                     	;# 
   298  0111                     	;# 
   299  0112                     	;# 
   300  0115                     	;# 
   301  0116                     	;# 
   302  0117                     	;# 
   303  0118                     	;# 
   304  0119                     	;# 
   305  011A                     	;# 
   306  011B                     	;# 
   307  011D                     	;# 
   308  011D                     	;# 
   309  018C                     	;# 
   310  0191                     	;# 
   311  0191                     	;# 
   312  0192                     	;# 
   313  0193                     	;# 
   314  0193                     	;# 
   315  0193                     	;# 
   316  0194                     	;# 
   317  0195                     	;# 
   318  0196                     	;# 
   319  0199                     	;# 
   320  019A                     	;# 
   321  019B                     	;# 
   322  019B                     	;# 
   323  019B                     	;# 
   324  019B                     	;# 
   325  019C                     	;# 
   326  019C                     	;# 
   327  019D                     	;# 
   328  019E                     	;# 
   329  019F                     	;# 
   330  020C                     	;# 
   331  0211                     	;# 
   332  0211                     	;# 
   333  0212                     	;# 
   334  0212                     	;# 
   335  0213                     	;# 
   336  0213                     	;# 
   337  0214                     	;# 
   338  0214                     	;# 
   339  0215                     	;# 
   340  0215                     	;# 
   341  0215                     	;# 
   342  0216                     	;# 
   343  0216                     	;# 
   344  0217                     	;# 
   345  0217                     	;# 
   346  0291                     	;# 
   347  0291                     	;# 
   348  0292                     	;# 
   349  0293                     	;# 
   350  0294                     	;# 
   351  0295                     	;# 
   352  0295                     	;# 
   353  0296                     	;# 
   354  0391                     	;# 
   355  0392                     	;# 
   356  0393                     	;# 
   357  039A                     	;# 
   358  039C                     	;# 
   359  039D                     	;# 
   360  039E                     	;# 
   361  039F                     	;# 
   362  0FE4                     	;# 
   363  0FE5                     	;# 
   364  0FE6                     	;# 
   365  0FE7                     	;# 
   366  0FE8                     	;# 
   367  0FE9                     	;# 
   368  0FEA                     	;# 
   369  0FEB                     	;# 
   370  0FED                     	;# 
   371  0FEE                     	;# 
   372  0FEF                     	;# 
   373  0000                     	;# 
   374  0001                     	;# 
   375  0002                     	;# 
   376  0003                     	;# 
   377  0004                     	;# 
   378  0005                     	;# 
   379  0006                     	;# 
   380  0007                     	;# 
   381  0008                     	;# 
   382  0009                     	;# 
   383  000A                     	;# 
   384  000B                     	;# 
   385  000C                     	;# 
   386  0011                     	;# 
   387  0012                     	;# 
   388  0015                     	;# 
   389  0016                     	;# 
   390  0016                     	;# 
   391  0017                     	;# 
   392  0018                     	;# 
   393  0019                     	;# 
   394  001A                     	;# 
   395  001B                     	;# 
   396  001C                     	;# 
   397  001E                     	;# 
   398  001F                     	;# 
   399  008C                     	;# 
   400  0091                     	;# 
   401  0092                     	;# 
   402  0095                     	;# 
   403  0096                     	;# 
   404  0097                     	;# 
   405  0098                     	;# 
   406  0099                     	;# 
   407  009A                     	;# 
   408  009B                     	;# 
   409  009B                     	;# 
   410  009C                     	;# 
   411  009D                     	;# 
   412  009E                     	;# 
   413  010C                     	;# 
   414  0111                     	;# 
   415  0112                     	;# 
   416  0115                     	;# 
   417  0116                     	;# 
   418  0117                     	;# 
   419  0118                     	;# 
   420  0119                     	;# 
   421  011A                     	;# 
   422  011B                     	;# 
   423  011D                     	;# 
   424  011D                     	;# 
   425  018C                     	;# 
   426  0191                     	;# 
   427  0191                     	;# 
   428  0192                     	;# 
   429  0193                     	;# 
   430  0193                     	;# 
   431  0193                     	;# 
   432  0194                     	;# 
   433  0195                     	;# 
   434  0196                     	;# 
   435  0199                     	;# 
   436  019A                     	;# 
   437  019B                     	;# 
   438  019B                     	;# 
   439  019B                     	;# 
   440  019B                     	;# 
   441  019C                     	;# 
   442  019C                     	;# 
   443  019D                     	;# 
   444  019E                     	;# 
   445  019F                     	;# 
   446  020C                     	;# 
   447  0211                     	;# 
   448  0211                     	;# 
   449  0212                     	;# 
   450  0212                     	;# 
   451  0213                     	;# 
   452  0213                     	;# 
   453  0214                     	;# 
   454  0214                     	;# 
   455  0215                     	;# 
   456  0215                     	;# 
   457  0215                     	;# 
   458  0216                     	;# 
   459  0216                     	;# 
   460  0217                     	;# 
   461  0217                     	;# 
   462  0291                     	;# 
   463  0291                     	;# 
   464  0292                     	;# 
   465  0293                     	;# 
   466  0294                     	;# 
   467  0295                     	;# 
   468  0295                     	;# 
   469  0296                     	;# 
   470  0391                     	;# 
   471  0392                     	;# 
   472  0393                     	;# 
   473  039A                     	;# 
   474  039C                     	;# 
   475  039D                     	;# 
   476  039E                     	;# 
   477  039F                     	;# 
   478  0FE4                     	;# 
   479  0FE5                     	;# 
   480  0FE6                     	;# 
   481  0FE7                     	;# 
   482  0FE8                     	;# 
   483  0FE9                     	;# 
   484  0FEA                     	;# 
   485  0FEB                     	;# 
   486  0FED                     	;# 
   487  0FEE                     	;# 
   488  0FEF                     	;# 
   489  0000                     	;# 
   490  0001                     	;# 
   491  0002                     	;# 
   492  0003                     	;# 
   493  0004                     	;# 
   494  0005                     	;# 
   495  0006                     	;# 
   496  0007                     	;# 
   497  0008                     	;# 
   498  0009                     	;# 
   499  000A                     	;# 
   500  000B                     	;# 
   501  000C                     	;# 
   502  0011                     	;# 
   503  0012                     	;# 
   504  0015                     	;# 
   505  0016                     	;# 
   506  0016                     	;# 
   507  0017                     	;# 
   508  0018                     	;# 
   509  0019                     	;# 
   510  001A                     	;# 
   511  001B                     	;# 
   512  001C                     	;# 
   513  001E                     	;# 
   514  001F                     	;# 
   515  008C                     	;# 
   516  0091                     	;# 
   517  0092                     	;# 
   518  0095                     	;# 
   519  0096                     	;# 
   520  0097                     	;# 
   521  0098                     	;# 
   522  0099                     	;# 
   523  009A                     	;# 
   524  009B                     	;# 
   525  009B                     	;# 
   526  009C                     	;# 
   527  009D                     	;# 
   528  009E                     	;# 
   529  010C                     	;# 
   530  0111                     	;# 
   531  0112                     	;# 
   532  0115                     	;# 
   533  0116                     	;# 
   534  0117                     	;# 
   535  0118                     	;# 
   536  0119                     	;# 
   537  011A                     	;# 
   538  011B                     	;# 
   539  011D                     	;# 
   540  011D                     	;# 
   541  018C                     	;# 
   542  0191                     	;# 
   543  0191                     	;# 
   544  0192                     	;# 
   545  0193                     	;# 
   546  0193                     	;# 
   547  0193                     	;# 
   548  0194                     	;# 
   549  0195                     	;# 
   550  0196                     	;# 
   551  0199                     	;# 
   552  019A                     	;# 
   553  019B                     	;# 
   554  019B                     	;# 
   555  019B                     	;# 
   556  019B                     	;# 
   557  019C                     	;# 
   558  019C                     	;# 
   559  019D                     	;# 
   560  019E                     	;# 
   561  019F                     	;# 
   562  020C                     	;# 
   563  0211                     	;# 
   564  0211                     	;# 
   565  0212                     	;# 
   566  0212                     	;# 
   567  0213                     	;# 
   568  0213                     	;# 
   569  0214                     	;# 
   570  0214                     	;# 
   571  0215                     	;# 
   572  0215                     	;# 
   573  0215                     	;# 
   574  0216                     	;# 
   575  0216                     	;# 
   576  0217                     	;# 
   577  0217                     	;# 
   578  0291                     	;# 
   579  0291                     	;# 
   580  0292                     	;# 
   581  0293                     	;# 
   582  0294                     	;# 
   583  0295                     	;# 
   584  0295                     	;# 
   585  0296                     	;# 
   586  0391                     	;# 
   587  0392                     	;# 
   588  0393                     	;# 
   589  039A                     	;# 
   590  039C                     	;# 
   591  039D                     	;# 
   592  039E                     	;# 
   593  039F                     	;# 
   594  0FE4                     	;# 
   595  0FE5                     	;# 
   596  0FE6                     	;# 
   597  0FE7                     	;# 
   598  0FE8                     	;# 
   599  0FE9                     	;# 
   600  0FEA                     	;# 
   601  0FEB                     	;# 
   602  0FED                     	;# 
   603  0FEE                     	;# 
   604  0FEF                     	;# 
   605  0000                     	;# 
   606  0001                     	;# 
   607  0002                     	;# 
   608  0003                     	;# 
   609  0004                     	;# 
   610  0005                     	;# 
   611  0006                     	;# 
   612  0007                     	;# 
   613  0008                     	;# 
   614  0009                     	;# 
   615  000A                     	;# 
   616  000B                     	;# 
   617  000C                     	;# 
   618  0011                     	;# 
   619  0012                     	;# 
   620  0015                     	;# 
   621  0016                     	;# 
   622  0016                     	;# 
   623  0017                     	;# 
   624  0018                     	;# 
   625  0019                     	;# 
   626  001A                     	;# 
   627  001B                     	;# 
   628  001C                     	;# 
   629  001E                     	;# 
   630  001F                     	;# 
   631  008C                     	;# 
   632  0091                     	;# 
   633  0092                     	;# 
   634  0095                     	;# 
   635  0096                     	;# 
   636  0097                     	;# 
   637  0098                     	;# 
   638  0099                     	;# 
   639  009A                     	;# 
   640  009B                     	;# 
   641  009B                     	;# 
   642  009C                     	;# 
   643  009D                     	;# 
   644  009E                     	;# 
   645  010C                     	;# 
   646  0111                     	;# 
   647  0112                     	;# 
   648  0115                     	;# 
   649  0116                     	;# 
   650  0117                     	;# 
   651  0118                     	;# 
   652  0119                     	;# 
   653  011A                     	;# 
   654  011B                     	;# 
   655  011D                     	;# 
   656  011D                     	;# 
   657  018C                     	;# 
   658  0191                     	;# 
   659  0191                     	;# 
   660  0192                     	;# 
   661  0193                     	;# 
   662  0193                     	;# 
   663  0193                     	;# 
   664  0194                     	;# 
   665  0195                     	;# 
   666  0196                     	;# 
   667  0199                     	;# 
   668  019A                     	;# 
   669  019B                     	;# 
   670  019B                     	;# 
   671  019B                     	;# 
   672  019B                     	;# 
   673  019C                     	;# 
   674  019C                     	;# 
   675  019D                     	;# 
   676  019E                     	;# 
   677  019F                     	;# 
   678  020C                     	;# 
   679  0211                     	;# 
   680  0211                     	;# 
   681  0212                     	;# 
   682  0212                     	;# 
   683  0213                     	;# 
   684  0213                     	;# 
   685  0214                     	;# 
   686  0214                     	;# 
   687  0215                     	;# 
   688  0215                     	;# 
   689  0215                     	;# 
   690  0216                     	;# 
   691  0216                     	;# 
   692  0217                     	;# 
   693  0217                     	;# 
   694  0291                     	;# 
   695  0291                     	;# 
   696  0292                     	;# 
   697  0293                     	;# 
   698  0294                     	;# 
   699  0295                     	;# 
   700  0295                     	;# 
   701  0296                     	;# 
   702  0391                     	;# 
   703  0392                     	;# 
   704  0393                     	;# 
   705  039A                     	;# 
   706  039C                     	;# 
   707  039D                     	;# 
   708  039E                     	;# 
   709  039F                     	;# 
   710  0FE4                     	;# 
   711  0FE5                     	;# 
   712  0FE6                     	;# 
   713  0FE7                     	;# 
   714  0FE8                     	;# 
   715  0FE9                     	;# 
   716  0FEA                     	;# 
   717  0FEB                     	;# 
   718  0FED                     	;# 
   719  0FEE                     	;# 
   720  0FEF                     	;# 
   721  0000                     	;# 
   722  0001                     	;# 
   723  0002                     	;# 
   724  0003                     	;# 
   725  0004                     	;# 
   726  0005                     	;# 
   727  0006                     	;# 
   728  0007                     	;# 
   729  0008                     	;# 
   730  0009                     	;# 
   731  000A                     	;# 
   732  000B                     	;# 
   733  000C                     	;# 
   734  0011                     	;# 
   735  0012                     	;# 
   736  0015                     	;# 
   737  0016                     	;# 
   738  0016                     	;# 
   739  0017                     	;# 
   740  0018                     	;# 
   741  0019                     	;# 
   742  001A                     	;# 
   743  001B                     	;# 
   744  001C                     	;# 
   745  001E                     	;# 
   746  001F                     	;# 
   747  008C                     	;# 
   748  0091                     	;# 
   749  0092                     	;# 
   750  0095                     	;# 
   751  0096                     	;# 
   752  0097                     	;# 
   753  0098                     	;# 
   754  0099                     	;# 
   755  009A                     	;# 
   756  009B                     	;# 
   757  009B                     	;# 
   758  009C                     	;# 
   759  009D                     	;# 
   760  009E                     	;# 
   761  010C                     	;# 
   762  0111                     	;# 
   763  0112                     	;# 
   764  0115                     	;# 
   765  0116                     	;# 
   766  0117                     	;# 
   767  0118                     	;# 
   768  0119                     	;# 
   769  011A                     	;# 
   770  011B                     	;# 
   771  011D                     	;# 
   772  011D                     	;# 
   773  018C                     	;# 
   774  0191                     	;# 
   775  0191                     	;# 
   776  0192                     	;# 
   777  0193                     	;# 
   778  0193                     	;# 
   779  0193                     	;# 
   780  0194                     	;# 
   781  0195                     	;# 
   782  0196                     	;# 
   783  0199                     	;# 
   784  019A                     	;# 
   785  019B                     	;# 
   786  019B                     	;# 
   787  019B                     	;# 
   788  019B                     	;# 
   789  019C                     	;# 
   790  019C                     	;# 
   791  019D                     	;# 
   792  019E                     	;# 
   793  019F                     	;# 
   794  020C                     	;# 
   795  0211                     	;# 
   796  0211                     	;# 
   797  0212                     	;# 
   798  0212                     	;# 
   799  0213                     	;# 
   800  0213                     	;# 
   801  0214                     	;# 
   802  0214                     	;# 
   803  0215                     	;# 
   804  0215                     	;# 
   805  0215                     	;# 
   806  0216                     	;# 
   807  0216                     	;# 
   808  0217                     	;# 
   809  0217                     	;# 
   810  0291                     	;# 
   811  0291                     	;# 
   812  0292                     	;# 
   813  0293                     	;# 
   814  0294                     	;# 
   815  0295                     	;# 
   816  0295                     	;# 
   817  0296                     	;# 
   818  0391                     	;# 
   819  0392                     	;# 
   820  0393                     	;# 
   821  039A                     	;# 
   822  039C                     	;# 
   823  039D                     	;# 
   824  039E                     	;# 
   825  039F                     	;# 
   826  0FE4                     	;# 
   827  0FE5                     	;# 
   828  0FE6                     	;# 
   829  0FE7                     	;# 
   830  0FE8                     	;# 
   831  0FE9                     	;# 
   832  0FEA                     	;# 
   833  0FEB                     	;# 
   834  0FED                     	;# 
   835  0FEE                     	;# 
   836  0FEF                     	;# 
   837  0000                     	;# 
   838  0001                     	;# 
   839  0002                     	;# 
   840  0003                     	;# 
   841  0004                     	;# 
   842  0005                     	;# 
   843  0006                     	;# 
   844  0007                     	;# 
   845  0008                     	;# 
   846  0009                     	;# 
   847  000A                     	;# 
   848  000B                     	;# 
   849  000C                     	;# 
   850  0011                     	;# 
   851  0012                     	;# 
   852  0015                     	;# 
   853  0016                     	;# 
   854  0016                     	;# 
   855  0017                     	;# 
   856  0018                     	;# 
   857  0019                     	;# 
   858  001A                     	;# 
   859  001B                     	;# 
   860  001C                     	;# 
   861  001E                     	;# 
   862  001F                     	;# 
   863  008C                     	;# 
   864  0091                     	;# 
   865  0092                     	;# 
   866  0095                     	;# 
   867  0096                     	;# 
   868  0097                     	;# 
   869  0098                     	;# 
   870  0099                     	;# 
   871  009A                     	;# 
   872  009B                     	;# 
   873  009B                     	;# 
   874  009C                     	;# 
   875  009D                     	;# 
   876  009E                     	;# 
   877  010C                     	;# 
   878  0111                     	;# 
   879  0112                     	;# 
   880  0115                     	;# 
   881  0116                     	;# 
   882  0117                     	;# 
   883  0118                     	;# 
   884  0119                     	;# 
   885  011A                     	;# 
   886  011B                     	;# 
   887  011D                     	;# 
   888  011D                     	;# 
   889  018C                     	;# 
   890  0191                     	;# 
   891  0191                     	;# 
   892  0192                     	;# 
   893  0193                     	;# 
   894  0193                     	;# 
   895  0193                     	;# 
   896  0194                     	;# 
   897  0195                     	;# 
   898  0196                     	;# 
   899  0199                     	;# 
   900  019A                     	;# 
   901  019B                     	;# 
   902  019B                     	;# 
   903  019B                     	;# 
   904  019B                     	;# 
   905  019C                     	;# 
   906  019C                     	;# 
   907  019D                     	;# 
   908  019E                     	;# 
   909  019F                     	;# 
   910  020C                     	;# 
   911  0211                     	;# 
   912  0211                     	;# 
   913  0212                     	;# 
   914  0212                     	;# 
   915  0213                     	;# 
   916  0213                     	;# 
   917  0214                     	;# 
   918  0214                     	;# 
   919  0215                     	;# 
   920  0215                     	;# 
   921  0215                     	;# 
   922  0216                     	;# 
   923  0216                     	;# 
   924  0217                     	;# 
   925  0217                     	;# 
   926  0291                     	;# 
   927  0291                     	;# 
   928  0292                     	;# 
   929  0293                     	;# 
   930  0294                     	;# 
   931  0295                     	;# 
   932  0295                     	;# 
   933  0296                     	;# 
   934  0391                     	;# 
   935  0392                     	;# 
   936  0393                     	;# 
   937  039A                     	;# 
   938  039C                     	;# 
   939  039D                     	;# 
   940  039E                     	;# 
   941  039F                     	;# 
   942  0FE4                     	;# 
   943  0FE5                     	;# 
   944  0FE6                     	;# 
   945  0FE7                     	;# 
   946  0FE8                     	;# 
   947  0FE9                     	;# 
   948  0FEA                     	;# 
   949  0FEB                     	;# 
   950  0FED                     	;# 
   951  0FEE                     	;# 
   952  0FEF                     	;# 
   953  0000                     	;# 
   954  0001                     	;# 
   955  0002                     	;# 
   956  0003                     	;# 
   957  0004                     	;# 
   958  0005                     	;# 
   959  0006                     	;# 
   960  0007                     	;# 
   961  0008                     	;# 
   962  0009                     	;# 
   963  000A                     	;# 
   964  000B                     	;# 
   965  000C                     	;# 
   966  0011                     	;# 
   967  0012                     	;# 
   968  0015                     	;# 
   969  0016                     	;# 
   970  0016                     	;# 
   971  0017                     	;# 
   972  0018                     	;# 
   973  0019                     	;# 
   974  001A                     	;# 
   975  001B                     	;# 
   976  001C                     	;# 
   977  001E                     	;# 
   978  001F                     	;# 
   979  008C                     	;# 
   980  0091                     	;# 
   981  0092                     	;# 
   982  0095                     	;# 
   983  0096                     	;# 
   984  0097                     	;# 
   985  0098                     	;# 
   986  0099                     	;# 
   987  009A                     	;# 
   988  009B                     	;# 
   989  009B                     	;# 
   990  009C                     	;# 
   991  009D                     	;# 
   992  009E                     	;# 
   993  010C                     	;# 
   994  0111                     	;# 
   995  0112                     	;# 
   996  0115                     	;# 
   997  0116                     	;# 
   998  0117                     	;# 
   999  0118                     	;# 
  1000  0119                     	;# 
  1001  011A                     	;# 
  1002  011B                     	;# 
  1003  011D                     	;# 
  1004  011D                     	;# 
  1005  018C                     	;# 
  1006  0191                     	;# 
  1007  0191                     	;# 
  1008  0192                     	;# 
  1009  0193                     	;# 
  1010  0193                     	;# 
  1011  0193                     	;# 
  1012  0194                     	;# 
  1013  0195                     	;# 
  1014  0196                     	;# 
  1015  0199                     	;# 
  1016  019A                     	;# 
  1017  019B                     	;# 
  1018  019B                     	;# 
  1019  019B                     	;# 
  1020  019B                     	;# 
  1021  019C                     	;# 
  1022  019C                     	;# 
  1023  019D                     	;# 
  1024  019E                     	;# 
  1025  019F                     	;# 
  1026  020C                     	;# 
  1027  0211                     	;# 
  1028  0211                     	;# 
  1029  0212                     	;# 
  1030  0212                     	;# 
  1031  0213                     	;# 
  1032  0213                     	;# 
  1033  0214                     	;# 
  1034  0214                     	;# 
  1035  0215                     	;# 
  1036  0215                     	;# 
  1037  0215                     	;# 
  1038  0216                     	;# 
  1039  0216                     	;# 
  1040  0217                     	;# 
  1041  0217                     	;# 
  1042  0291                     	;# 
  1043  0291                     	;# 
  1044  0292                     	;# 
  1045  0293                     	;# 
  1046  0294                     	;# 
  1047  0295                     	;# 
  1048  0295                     	;# 
  1049  0296                     	;# 
  1050  0391                     	;# 
  1051  0392                     	;# 
  1052  0393                     	;# 
  1053  039A                     	;# 
  1054  039C                     	;# 
  1055  039D                     	;# 
  1056  039E                     	;# 
  1057  039F                     	;# 
  1058  0FE4                     	;# 
  1059  0FE5                     	;# 
  1060  0FE6                     	;# 
  1061  0FE7                     	;# 
  1062  0FE8                     	;# 
  1063  0FE9                     	;# 
  1064  0FEA                     	;# 
  1065  0FEB                     	;# 
  1066  0FED                     	;# 
  1067  0FEE                     	;# 
  1068  0FEF                     	;# 
  1069  0000                     	;# 
  1070  0001                     	;# 
  1071  0002                     	;# 
  1072  0003                     	;# 
  1073  0004                     	;# 
  1074  0005                     	;# 
  1075  0006                     	;# 
  1076  0007                     	;# 
  1077  0008                     	;# 
  1078  0009                     	;# 
  1079  000A                     	;# 
  1080  000B                     	;# 
  1081  000C                     	;# 
  1082  0011                     	;# 
  1083  0012                     	;# 
  1084  0015                     	;# 
  1085  0016                     	;# 
  1086  0016                     	;# 
  1087  0017                     	;# 
  1088  0018                     	;# 
  1089  0019                     	;# 
  1090  001A                     	;# 
  1091  001B                     	;# 
  1092  001C                     	;# 
  1093  001E                     	;# 
  1094  001F                     	;# 
  1095  008C                     	;# 
  1096  0091                     	;# 
  1097  0092                     	;# 
  1098  0095                     	;# 
  1099  0096                     	;# 
  1100  0097                     	;# 
  1101  0098                     	;# 
  1102  0099                     	;# 
  1103  009A                     	;# 
  1104  009B                     	;# 
  1105  009B                     	;# 
  1106  009C                     	;# 
  1107  009D                     	;# 
  1108  009E                     	;# 
  1109  010C                     	;# 
  1110  0111                     	;# 
  1111  0112                     	;# 
  1112  0115                     	;# 
  1113  0116                     	;# 
  1114  0117                     	;# 
  1115  0118                     	;# 
  1116  0119                     	;# 
  1117  011A                     	;# 
  1118  011B                     	;# 
  1119  011D                     	;# 
  1120  011D                     	;# 
  1121  018C                     	;# 
  1122  0191                     	;# 
  1123  0191                     	;# 
  1124  0192                     	;# 
  1125  0193                     	;# 
  1126  0193                     	;# 
  1127  0193                     	;# 
  1128  0194                     	;# 
  1129  0195                     	;# 
  1130  0196                     	;# 
  1131  0199                     	;# 
  1132  019A                     	;# 
  1133  019B                     	;# 
  1134  019B                     	;# 
  1135  019B                     	;# 
  1136  019B                     	;# 
  1137  019C                     	;# 
  1138  019C                     	;# 
  1139  019D                     	;# 
  1140  019E                     	;# 
  1141  019F                     	;# 
  1142  020C                     	;# 
  1143  0211                     	;# 
  1144  0211                     	;# 
  1145  0212                     	;# 
  1146  0212                     	;# 
  1147  0213                     	;# 
  1148  0213                     	;# 
  1149  0214                     	;# 
  1150  0214                     	;# 
  1151  0215                     	;# 
  1152  0215                     	;# 
  1153  0215                     	;# 
  1154  0216                     	;# 
  1155  0216                     	;# 
  1156  0217                     	;# 
  1157  0217                     	;# 
  1158  0291                     	;# 
  1159  0291                     	;# 
  1160  0292                     	;# 
  1161  0293                     	;# 
  1162  0294                     	;# 
  1163  0295                     	;# 
  1164  0295                     	;# 
  1165  0296                     	;# 
  1166  0391                     	;# 
  1167  0392                     	;# 
  1168  0393                     	;# 
  1169  039A                     	;# 
  1170  039C                     	;# 
  1171  039D                     	;# 
  1172  039E                     	;# 
  1173  039F                     	;# 
  1174  0FE4                     	;# 
  1175  0FE5                     	;# 
  1176  0FE6                     	;# 
  1177  0FE7                     	;# 
  1178  0FE8                     	;# 
  1179  0FE9                     	;# 
  1180  0FEA                     	;# 
  1181  0FEB                     	;# 
  1182  0FED                     	;# 
  1183  0FEE                     	;# 
  1184  0FEF                     	;# 
  1185  0000                     	;# 
  1186  0001                     	;# 
  1187  0002                     	;# 
  1188  0003                     	;# 
  1189  0004                     	;# 
  1190  0005                     	;# 
  1191  0006                     	;# 
  1192  0007                     	;# 
  1193  0008                     	;# 
  1194  0009                     	;# 
  1195  000A                     	;# 
  1196  000B                     	;# 
  1197  000C                     	;# 
  1198  0011                     	;# 
  1199  0012                     	;# 
  1200  0015                     	;# 
  1201  0016                     	;# 
  1202  0016                     	;# 
  1203  0017                     	;# 
  1204  0018                     	;# 
  1205  0019                     	;# 
  1206  001A                     	;# 
  1207  001B                     	;# 
  1208  001C                     	;# 
  1209  001E                     	;# 
  1210  001F                     	;# 
  1211  008C                     	;# 
  1212  0091                     	;# 
  1213  0092                     	;# 
  1214  0095                     	;# 
  1215  0096                     	;# 
  1216  0097                     	;# 
  1217  0098                     	;# 
  1218  0099                     	;# 
  1219  009A                     	;# 
  1220  009B                     	;# 
  1221  009B                     	;# 
  1222  009C                     	;# 
  1223  009D                     	;# 
  1224  009E                     	;# 
  1225  010C                     	;# 
  1226  0111                     	;# 
  1227  0112                     	;# 
  1228  0115                     	;# 
  1229  0116                     	;# 
  1230  0117                     	;# 
  1231  0118                     	;# 
  1232  0119                     	;# 
  1233  011A                     	;# 
  1234  011B                     	;# 
  1235  011D                     	;# 
  1236  011D                     	;# 
  1237  018C                     	;# 
  1238  0191                     	;# 
  1239  0191                     	;# 
  1240  0192                     	;# 
  1241  0193                     	;# 
  1242  0193                     	;# 
  1243  0193                     	;# 
  1244  0194                     	;# 
  1245  0195                     	;# 
  1246  0196                     	;# 
  1247  0199                     	;# 
  1248  019A                     	;# 
  1249  019B                     	;# 
  1250  019B                     	;# 
  1251  019B                     	;# 
  1252  019B                     	;# 
  1253  019C                     	;# 
  1254  019C                     	;# 
  1255  019D                     	;# 
  1256  019E                     	;# 
  1257  019F                     	;# 
  1258  020C                     	;# 
  1259  0211                     	;# 
  1260  0211                     	;# 
  1261  0212                     	;# 
  1262  0212                     	;# 
  1263  0213                     	;# 
  1264  0213                     	;# 
  1265  0214                     	;# 
  1266  0214                     	;# 
  1267  0215                     	;# 
  1268  0215                     	;# 
  1269  0215                     	;# 
  1270  0216                     	;# 
  1271  0216                     	;# 
  1272  0217                     	;# 
  1273  0217                     	;# 
  1274  0291                     	;# 
  1275  0291                     	;# 
  1276  0292                     	;# 
  1277  0293                     	;# 
  1278  0294                     	;# 
  1279  0295                     	;# 
  1280  0295                     	;# 
  1281  0296                     	;# 
  1282  0391                     	;# 
  1283  0392                     	;# 
  1284  0393                     	;# 
  1285  039A                     	;# 
  1286  039C                     	;# 
  1287  039D                     	;# 
  1288  039E                     	;# 
  1289  039F                     	;# 
  1290  0FE4                     	;# 
  1291  0FE5                     	;# 
  1292  0FE6                     	;# 
  1293  0FE7                     	;# 
  1294  0FE8                     	;# 
  1295  0FE9                     	;# 
  1296  0FEA                     	;# 
  1297  0FEB                     	;# 
  1298  0FED                     	;# 
  1299  0FEE                     	;# 
  1300  0FEF                     	;# 
  1301                           
  1302 ;; Function _INT_DefaultInterruptHandler is unused but had its address taken
  1303  0000                     
  1304 ;; Function _IOCAF1_DefaultInterruptHandler is unused but had its address taken
  1305  0000                     
  1306                           	psect	nvCOMMON
  1307  0077                     __pnvCOMMON:	
  1308  0077                     _INT_InterruptHandler:	
  1309  0077                     	ds	2
  1310  0079                     _IOCAF1_InterruptHandler:	
  1311  0079                     	ds	2
  1312  007B                     _timer0ReloadVal:	
  1313  007B                     	ds	1
  1314  000B                     _INTCONbits	set	11
  1315  0011                     _PIR1bits	set	17
  1316  001B                     _PR2	set	27
  1317  001C                     _T2CON	set	28
  1318  001C                     _T2CONbits	set	28
  1319  0015                     _TMR0	set	21
  1320  001A                     _TMR2	set	26
  1321  009D                     _ADCON0	set	157
  1322  009D                     _ADCON0bits	set	157
  1323  009E                     _ADCON1	set	158
  1324  009C                     _ADRESH	set	156
  1325  009B                     _ADRESL	set	155
  1326  0095                     _OPTION_REG	set	149
  1327  0095                     _OPTION_REGbits	set	149
  1328  0099                     _OSCCON	set	153
  1329  0098                     _OSCTUNE	set	152
  1330  008C                     _TRISA	set	140
  1331  0097                     _WDTCON	set	151
  1332  011D                     _APFCON	set	285
  1333  0116                     _BORCON	set	278
  1334  0117                     _FVRCON	set	279
  1335  0117                     _FVRCONbits	set	279
  1336  010C                     _LATA	set	268
  1337  018C                     _ANSELA	set	396
  1338  0192                     _EEADRH	set	402
  1339  0191                     _EEADRL	set	401
  1340  0195                     _EECON1bits	set	405
  1341  0196                     _EECON2	set	406
  1342  0194                     _EEDATH	set	404
  1343  0193                     _EEDATL	set	403
  1344  020C                     _WPUA	set	524
  1345  0293                     _CCP1CON	set	659
  1346  0292                     _CCPR1H	set	658
  1347  0291                     _CCPR1L	set	657
  1348  0295                     _ECCP1AS	set	661
  1349  0296                     _PSTR1CON	set	662
  1350  0294                     _PWM1CON	set	660
  1351  0393                     _IOCAFbits	set	915
  1352  0392                     _IOCANbits	set	914
  1353  0391                     _IOCAPbits	set	913
  1354                           
  1355                           ; #config settings
  1356  0000                     
  1357                           	psect	cinit
  1358  07FC                     start_initialization:	
  1359  07FC                     __initialization:	
  1360                           
  1361                           ; Clear objects allocated to COMMON
  1362  07FC  01FC               	clrf	__pbssCOMMON& (0+127)
  1363  07FD  01FD               	clrf	(__pbssCOMMON+1)& (0+127)
  1364  07FE                     end_of_initialization:	
  1365                           ;End of C runtime variable initialization code
  1366                           
  1367  07FE                     __end_of__initialization:	
  1368  07FE  0020               	movlb	0
  1369  07FF  2FAE               	ljmp	_main	;jump to C main() function
  1370                           
  1371                           	psect	bssCOMMON
  1372  007C                     __pbssCOMMON:	
  1373  007C                     _Batt_Status:	
  1374  007C                     	ds	1
  1375  007D                     _CurrentState:	
  1376  007D                     	ds	1
  1377                           
  1378                           	psect	cstackCOMMON
  1379  0070                     __pcstackCOMMON:	
  1380  0070                     ?_PIN_MANAGER_Initialize:	
  1381  0070                     ?_OSCILLATOR_Initialize:	
  1382                           ; 0 bytes @ 0x0
  1383                           
  1384  0070                     ??_OSCILLATOR_Initialize:	
  1385                           ; 0 bytes @ 0x0
  1386                           
  1387  0070                     ?_WDT_Initialize:	
  1388                           ; 0 bytes @ 0x0
  1389                           
  1390  0070                     ??_WDT_Initialize:	
  1391                           ; 0 bytes @ 0x0
  1392                           
  1393  0070                     ?_EPWM_Initialize:	
  1394                           ; 0 bytes @ 0x0
  1395                           
  1396  0070                     ??_EPWM_Initialize:	
  1397                           ; 0 bytes @ 0x0
  1398                           
  1399  0070                     ?_IOCAF1_SetInterruptHandler:	
  1400                           ; 0 bytes @ 0x0
  1401                           
  1402  0070                     ?_Calabrate_Chrage_Pwm:	
  1403                           ; 0 bytes @ 0x0
  1404                           
  1405  0070                     ?_FVR_Initialize:	
  1406                           ; 0 bytes @ 0x0
  1407                           
  1408  0070                     ??_FVR_Initialize:	
  1409                           ; 0 bytes @ 0x0
  1410                           
  1411  0070                     ?_TMR0_Initialize:	
  1412                           ; 0 bytes @ 0x0
  1413                           
  1414  0070                     ??_TMR0_Initialize:	
  1415                           ; 0 bytes @ 0x0
  1416                           
  1417  0070                     ?_TMR2_Initialize:	
  1418                           ; 0 bytes @ 0x0
  1419                           
  1420  0070                     ??_TMR2_Initialize:	
  1421                           ; 0 bytes @ 0x0
  1422                           
  1423  0070                     ?_ADC_Initialize:	
  1424                           ; 0 bytes @ 0x0
  1425                           
  1426  0070                     ??_ADC_Initialize:	
  1427                           ; 0 bytes @ 0x0
  1428                           
  1429  0070                     ?_INT_SetInterruptHandler:	
  1430                           ; 0 bytes @ 0x0
  1431                           
  1432  0070                     ?_EXT_INT_Initialize:	
  1433                           ; 0 bytes @ 0x0
  1434                           
  1435  0070                     ?_SYSTEM_Initialize:	
  1436                           ; 0 bytes @ 0x0
  1437                           
  1438  0070                     ?_EPWM_LoadDutyValue:	
  1439                           ; 0 bytes @ 0x0
  1440                           
  1441  0070                     ?_main:	
  1442                           ; 0 bytes @ 0x0
  1443                           
  1444  0070                     ?_ADC_GetConversion:	
  1445                           ; 0 bytes @ 0x0
  1446                           
  1447  0070                     INT_SetInterruptHandler@InterruptHandler:	
  1448                           ; 2 bytes @ 0x0
  1449                           
  1450  0070                     IOCAF1_SetInterruptHandler@InterruptHandler:	
  1451                           ; 2 bytes @ 0x0
  1452                           
  1453  0070                     EPWM_LoadDutyValue@dutyValue:	
  1454                           ; 2 bytes @ 0x0
  1455                           
  1456                           
  1457                           ; 2 bytes @ 0x0
  1458  0070                     	ds	2
  1459  0072                     ??_PIN_MANAGER_Initialize:	
  1460  0072                     ??_IOCAF1_SetInterruptHandler:	
  1461                           ; 0 bytes @ 0x2
  1462                           
  1463  0072                     ??_ADC_GetConversion:	
  1464                           ; 0 bytes @ 0x2
  1465                           
  1466  0072                     ??_INT_SetInterruptHandler:	
  1467                           ; 0 bytes @ 0x2
  1468                           
  1469  0072                     ??_EXT_INT_Initialize:	
  1470                           ; 0 bytes @ 0x2
  1471                           
  1472  0072                     ??_SYSTEM_Initialize:	
  1473                           ; 0 bytes @ 0x2
  1474                           
  1475  0072                     ??_EPWM_LoadDutyValue:	
  1476                           ; 0 bytes @ 0x2
  1477                           
  1478                           
  1479                           ; 0 bytes @ 0x2
  1480  0072                     	ds	1
  1481  0073                     ADC_GetConversion@channel:	
  1482                           
  1483                           ; 1 bytes @ 0x3
  1484  0073                     	ds	1
  1485  0074                     ??_Calabrate_Chrage_Pwm:	
  1486                           
  1487                           ; 0 bytes @ 0x4
  1488  0074                     	ds	1
  1489  0075                     Calabrate_Chrage_Pwm@Batt_Voltage:	
  1490                           
  1491                           ; 2 bytes @ 0x5
  1492  0075                     	ds	2
  1493  0077                     ??_main:	
  1494                           
  1495                           	psect	maintext
  1496  07AE                     __pmaintext:	
  1497                           ; 0 bytes @ 0x7
  1498 ;;
  1499 ;;Main: autosize = 0, tempsize = 0, incstack = 0, save=0
  1500 ;;
  1501 ;; *************** function _main *****************
  1502 ;; Defined at:
  1503 ;;		line 50 in file "main.c"
  1504 ;; Parameters:    Size  Location     Type
  1505 ;;		None
  1506 ;; Auto vars:     Size  Location     Type
  1507 ;;		None
  1508 ;; Return value:  Size  Location     Type
  1509 ;;		None               void
  1510 ;; Registers used:
  1511 ;;		wreg, fsr0l, fsr0h, status,2, status,0, pclath, cstack
  1512 ;; Tracked objects:
  1513 ;;		On entry : B1F/0
  1514 ;;		On exit  : 0/0
  1515 ;;		Unchanged: 0/0
  1516 ;; Data sizes:     COMMON   BANK0   BANK1
  1517 ;;      Params:         0       0       0
  1518 ;;      Locals:         0       0       0
  1519 ;;      Temps:          0       0       0
  1520 ;;      Totals:         0       0       0
  1521 ;;Total ram usage:        0 bytes
  1522 ;; Hardware stack levels required when called:    3
  1523 ;; This function calls:
  1524 ;;		_Calabrate_Chrage_Pwm
  1525 ;;		_EPWM_LoadDutyValue
  1526 ;;		_SYSTEM_Initialize
  1527 ;; This function is called by:
  1528 ;;		Startup code after reset
  1529 ;; This function uses a non-reentrant model
  1530 ;;
  1531                           
  1532                           
  1533                           ;psect for function _main
  1534  07AE                     _main:	
  1535                           
  1536                           ;main.c: 53: SYSTEM_Initialize();
  1537                           
  1538                           ;incstack = 0
  1539                           ; Regs used in _main: [wreg-fsr0h+status,2+status,0+pclath+cstack]
  1540  07AE  2742               	fcall	_SYSTEM_Initialize
  1541                           
  1542                           ;main.c: 70: CurrentState = e_Init;
  1543  07AF  01FD               	clrf	_CurrentState
  1544                           
  1545                           ;main.c: 72: EPWM_LoadDutyValue(500);
  1546  07B0  30F4               	movlw	244
  1547  07B1  00F0               	movwf	EPWM_LoadDutyValue@dutyValue
  1548  07B2  3001               	movlw	1
  1549  07B3  00F1               	movwf	EPWM_LoadDutyValue@dutyValue+1
  1550  07B4  2766               	fcall	_EPWM_LoadDutyValue
  1551                           
  1552                           ;main.c: 77: {
  1553                           ;main.c: 79: switch(CurrentState)
  1554                           
  1555                           ;main.c: 76: while (1)
  1556  07B5  2FBA               	goto	l1209
  1557  07B6                     l297:	
  1558                           ;main.c: 80: {
  1559                           ;main.c: 81: case e_Init:
  1560                           
  1561                           
  1562                           ;main.c: 82: CurrentState = e_Charging;
  1563  07B6  01FD               	clrf	_CurrentState
  1564  07B7  0AFD               	incf	_CurrentState,f
  1565                           
  1566                           ;main.c: 83: break;
  1567  07B8  2FBA               	goto	l1209
  1568  07B9                     l1205:	
  1569                           ;main.c: 85: case e_Charging:
  1570                           
  1571                           
  1572                           ;main.c: 86: Calabrate_Chrage_Pwm();
  1573  07B9  27C9               	fcall	_Calabrate_Chrage_Pwm
  1574  07BA                     l1209:	
  1575                           ;main.c: 97: }
  1576                           
  1577                           ;main.c: 94: break;
  1578                           
  1579                           ;main.c: 93: case e_BatPower:
  1580                           
  1581                           ;main.c: 91: break;
  1582                           
  1583                           ;main.c: 90: case e_Float:
  1584                           
  1585                           ;main.c: 87: break;
  1586                           
  1587  07BA  087D               	movf	_CurrentState,w
  1588                           
  1589                           ; Switch size 1, requested type "space"
  1590                           ; Number of cases is 4, Range of values is 0 to 3
  1591                           ; switch strategies available:
  1592                           ; Name         Instructions Cycles
  1593                           ; simple_byte           13     7 (average)
  1594                           ; direct_byte           14     6 (fixed)
  1595                           ; jumptable            260     6 (fixed)
  1596                           ;	Chosen strategy is simple_byte
  1597  07BB  3A00               	xorlw	0	; case 0
  1598  07BC  1903               	skipnz
  1599  07BD  2FB6               	goto	l297
  1600  07BE  3A01               	xorlw	1	; case 1
  1601  07BF  1903               	skipnz
  1602  07C0  2FB9               	goto	l1205
  1603  07C1  3A03               	xorlw	3	; case 2
  1604  07C2  1903               	skipnz
  1605  07C3  2FBA               	goto	l1209
  1606  07C4  3A01               	xorlw	1	; case 3
  1607  07C5  1903               	skipnz
  1608  07C6  2FBA               	goto	l1209
  1609  07C7  2FBA               	goto	l1209
  1610  07C8  2FBA               	goto	l1209
  1611  07C9                     __end_of_main:	
  1612                           
  1613                           	psect	text1
  1614  0742                     __ptext1:	
  1615 ;; *************** function _SYSTEM_Initialize *****************
  1616 ;; Defined at:
  1617 ;;		line 50 in file "mcc_generated_files/mcc.c"
  1618 ;; Parameters:    Size  Location     Type
  1619 ;;		None
  1620 ;; Auto vars:     Size  Location     Type
  1621 ;;		None
  1622 ;; Return value:  Size  Location     Type
  1623 ;;		None               void
  1624 ;; Registers used:
  1625 ;;		wreg, status,2, status,0, pclath, cstack
  1626 ;; Tracked objects:
  1627 ;;		On entry : 0/0
  1628 ;;		On exit  : 0/0
  1629 ;;		Unchanged: 0/0
  1630 ;; Data sizes:     COMMON   BANK0   BANK1
  1631 ;;      Params:         0       0       0
  1632 ;;      Locals:         0       0       0
  1633 ;;      Temps:          0       0       0
  1634 ;;      Totals:         0       0       0
  1635 ;;Total ram usage:        0 bytes
  1636 ;; Hardware stack levels used:    1
  1637 ;; Hardware stack levels required when called:    2
  1638 ;; This function calls:
  1639 ;;		_ADC_Initialize
  1640 ;;		_EPWM_Initialize
  1641 ;;		_EXT_INT_Initialize
  1642 ;;		_FVR_Initialize
  1643 ;;		_OSCILLATOR_Initialize
  1644 ;;		_PIN_MANAGER_Initialize
  1645 ;;		_TMR0_Initialize
  1646 ;;		_TMR2_Initialize
  1647 ;;		_WDT_Initialize
  1648 ;; This function is called by:
  1649 ;;		_main
  1650 ;; This function uses a non-reentrant model
  1651 ;;
  1652                           
  1653                           
  1654                           ;psect for function _SYSTEM_Initialize
  1655  0742                     _SYSTEM_Initialize:	
  1656                           
  1657                           ;mcc.c: 53: PIN_MANAGER_Initialize();
  1658                           
  1659                           ;incstack = 0
  1660                           ; Regs used in _SYSTEM_Initialize: [wreg+status,2+status,0+pclath+cstack]
  1661  0742  277D               	fcall	_PIN_MANAGER_Initialize
  1662                           
  1663                           ;mcc.c: 54: OSCILLATOR_Initialize();
  1664  0743  2721               	fcall	_OSCILLATOR_Initialize
  1665                           
  1666                           ;mcc.c: 55: WDT_Initialize();
  1667  0744  2713               	fcall	_WDT_Initialize
  1668                           
  1669                           ;mcc.c: 56: FVR_Initialize();
  1670  0745  270F               	fcall	_FVR_Initialize
  1671                           
  1672                           ;mcc.c: 57: ADC_Initialize();
  1673  0746  2728               	fcall	_ADC_Initialize
  1674                           
  1675                           ;mcc.c: 58: EPWM_Initialize();
  1676  0747  274C               	fcall	_EPWM_Initialize
  1677                           
  1678                           ;mcc.c: 59: TMR2_Initialize();
  1679  0748  2730               	fcall	_TMR2_Initialize
  1680                           
  1681                           ;mcc.c: 60: EXT_INT_Initialize();
  1682  0749  2738               	fcall	_EXT_INT_Initialize
  1683                           
  1684                           ;mcc.c: 61: TMR0_Initialize();
  1685  074A  2758               	fcall	_TMR0_Initialize
  1686  074B  0008               	return
  1687  074C                     __end_of_SYSTEM_Initialize:	
  1688                           
  1689                           	psect	text2
  1690  0713                     __ptext2:	
  1691 ;; *************** function _WDT_Initialize *****************
  1692 ;; Defined at:
  1693 ;;		line 75 in file "mcc_generated_files/mcc.c"
  1694 ;; Parameters:    Size  Location     Type
  1695 ;;		None
  1696 ;; Auto vars:     Size  Location     Type
  1697 ;;		None
  1698 ;; Return value:  Size  Location     Type
  1699 ;;		None               void
  1700 ;; Registers used:
  1701 ;;		wreg
  1702 ;; Tracked objects:
  1703 ;;		On entry : 0/0
  1704 ;;		On exit  : 0/0
  1705 ;;		Unchanged: 0/0
  1706 ;; Data sizes:     COMMON   BANK0   BANK1
  1707 ;;      Params:         0       0       0
  1708 ;;      Locals:         0       0       0
  1709 ;;      Temps:          0       0       0
  1710 ;;      Totals:         0       0       0
  1711 ;;Total ram usage:        0 bytes
  1712 ;; Hardware stack levels used:    1
  1713 ;; This function calls:
  1714 ;;		Nothing
  1715 ;; This function is called by:
  1716 ;;		_SYSTEM_Initialize
  1717 ;; This function uses a non-reentrant model
  1718 ;;
  1719                           
  1720                           
  1721                           ;psect for function _WDT_Initialize
  1722  0713                     _WDT_Initialize:	
  1723                           
  1724                           ;mcc.c: 78: WDTCON = 0x16;
  1725                           
  1726                           ;incstack = 0
  1727                           ; Regs used in _WDT_Initialize: [wreg]
  1728  0713  3016               	movlw	22
  1729  0714  0021               	movlb	1	; select bank1
  1730  0715  0097               	movwf	23	;volatile
  1731  0716  0008               	return
  1732  0717                     __end_of_WDT_Initialize:	
  1733                           
  1734                           	psect	text3
  1735  0730                     __ptext3:	
  1736 ;; *************** function _TMR2_Initialize *****************
  1737 ;; Defined at:
  1738 ;;		line 62 in file "mcc_generated_files/tmr2.c"
  1739 ;; Parameters:    Size  Location     Type
  1740 ;;		None
  1741 ;; Auto vars:     Size  Location     Type
  1742 ;;		None
  1743 ;; Return value:  Size  Location     Type
  1744 ;;		None               void
  1745 ;; Registers used:
  1746 ;;		wreg, status,2
  1747 ;; Tracked objects:
  1748 ;;		On entry : 0/0
  1749 ;;		On exit  : 0/0
  1750 ;;		Unchanged: 0/0
  1751 ;; Data sizes:     COMMON   BANK0   BANK1
  1752 ;;      Params:         0       0       0
  1753 ;;      Locals:         0       0       0
  1754 ;;      Temps:          0       0       0
  1755 ;;      Totals:         0       0       0
  1756 ;;Total ram usage:        0 bytes
  1757 ;; Hardware stack levels used:    1
  1758 ;; This function calls:
  1759 ;;		Nothing
  1760 ;; This function is called by:
  1761 ;;		_SYSTEM_Initialize
  1762 ;; This function uses a non-reentrant model
  1763 ;;
  1764                           
  1765                           
  1766                           ;psect for function _TMR2_Initialize
  1767  0730                     _TMR2_Initialize:	
  1768                           
  1769                           ;tmr2.c: 67: PR2 = 0xFF;
  1770                           
  1771                           ;incstack = 0
  1772                           ; Regs used in _TMR2_Initialize: [wreg+status,2]
  1773  0730  30FF               	movlw	255
  1774  0731  0020               	movlb	0	; select bank0
  1775  0732  009B               	movwf	27	;volatile
  1776                           
  1777                           ;tmr2.c: 70: TMR2 = 0x00;
  1778  0733  019A               	clrf	26	;volatile
  1779                           
  1780                           ;tmr2.c: 73: PIR1bits.TMR2IF = 0;
  1781  0734  1091               	bcf	17,1	;volatile
  1782                           
  1783                           ;tmr2.c: 76: T2CON = 0x04;
  1784  0735  3004               	movlw	4
  1785  0736  009C               	movwf	28	;volatile
  1786  0737  0008               	return
  1787  0738                     __end_of_TMR2_Initialize:	
  1788                           
  1789                           	psect	text4
  1790  0758                     __ptext4:	
  1791 ;; *************** function _TMR0_Initialize *****************
  1792 ;; Defined at:
  1793 ;;		line 63 in file "mcc_generated_files/tmr0.c"
  1794 ;; Parameters:    Size  Location     Type
  1795 ;;		None
  1796 ;; Auto vars:     Size  Location     Type
  1797 ;;		None
  1798 ;; Return value:  Size  Location     Type
  1799 ;;		None               void
  1800 ;; Registers used:
  1801 ;;		wreg, status,2
  1802 ;; Tracked objects:
  1803 ;;		On entry : 0/0
  1804 ;;		On exit  : 0/0
  1805 ;;		Unchanged: 0/0
  1806 ;; Data sizes:     COMMON   BANK0   BANK1
  1807 ;;      Params:         0       0       0
  1808 ;;      Locals:         0       0       0
  1809 ;;      Temps:          1       0       0
  1810 ;;      Totals:         1       0       0
  1811 ;;Total ram usage:        1 bytes
  1812 ;; Hardware stack levels used:    1
  1813 ;; This function calls:
  1814 ;;		Nothing
  1815 ;; This function is called by:
  1816 ;;		_SYSTEM_Initialize
  1817 ;; This function uses a non-reentrant model
  1818 ;;
  1819                           
  1820                           
  1821                           ;psect for function _TMR0_Initialize
  1822  0758                     _TMR0_Initialize:	
  1823                           
  1824                           ;tmr0.c: 68: OPTION_REG = (uint8_t)((OPTION_REG & 0xC0) | (0xD7 & 0x3F));
  1825                           
  1826                           ;incstack = 0
  1827                           ; Regs used in _TMR0_Initialize: [wreg+status,2]
  1828  0758  0021               	movlb	1	; select bank1
  1829  0759  0815               	movf	21,w	;volatile
  1830  075A  39C0               	andlw	192
  1831  075B  3817               	iorlw	23
  1832  075C  0095               	movwf	21	;volatile
  1833                           
  1834                           ;tmr0.c: 71: TMR0 = 0xB2;
  1835  075D  30B2               	movlw	178
  1836  075E  0020               	movlb	0	; select bank0
  1837  075F  0095               	movwf	21	;volatile
  1838                           
  1839                           ;tmr0.c: 74: timer0ReloadVal= 178;
  1840  0760  30B2               	movlw	178
  1841  0761  00F0               	movwf	??_TMR0_Initialize
  1842  0762  0870               	movf	??_TMR0_Initialize,w
  1843  0763  00FB               	movwf	_timer0ReloadVal	;volatile
  1844                           
  1845                           ;tmr0.c: 77: INTCONbits.TMR0IF = 0;
  1846  0764  110B               	bcf	11,2	;volatile
  1847  0765  0008               	return
  1848  0766                     __end_of_TMR0_Initialize:	
  1849                           
  1850                           	psect	text5
  1851  077D                     __ptext5:	
  1852 ;; *************** function _PIN_MANAGER_Initialize *****************
  1853 ;; Defined at:
  1854 ;;		line 59 in file "mcc_generated_files/pin_manager.c"
  1855 ;; Parameters:    Size  Location     Type
  1856 ;;		None
  1857 ;; Auto vars:     Size  Location     Type
  1858 ;;		None
  1859 ;; Return value:  Size  Location     Type
  1860 ;;		None               void
  1861 ;; Registers used:
  1862 ;;		wreg, status,2, status,0, pclath, cstack
  1863 ;; Tracked objects:
  1864 ;;		On entry : 0/0
  1865 ;;		On exit  : 0/0
  1866 ;;		Unchanged: 0/0
  1867 ;; Data sizes:     COMMON   BANK0   BANK1
  1868 ;;      Params:         0       0       0
  1869 ;;      Locals:         0       0       0
  1870 ;;      Temps:          0       0       0
  1871 ;;      Totals:         0       0       0
  1872 ;;Total ram usage:        0 bytes
  1873 ;; Hardware stack levels used:    1
  1874 ;; Hardware stack levels required when called:    1
  1875 ;; This function calls:
  1876 ;;		_IOCAF1_SetInterruptHandler
  1877 ;; This function is called by:
  1878 ;;		_SYSTEM_Initialize
  1879 ;; This function uses a non-reentrant model
  1880 ;;
  1881                           
  1882                           
  1883                           ;psect for function _PIN_MANAGER_Initialize
  1884  077D                     _PIN_MANAGER_Initialize:	
  1885                           
  1886                           ;pin_manager.c: 64: LATA = 0x00;
  1887                           
  1888                           ;incstack = 0
  1889                           ; Regs used in _PIN_MANAGER_Initialize: [wreg+status,2+status,0+pclath+cstack]
  1890  077D  0022               	movlb	2	; select bank2
  1891  077E  018C               	clrf	12	;volatile
  1892                           
  1893                           ;pin_manager.c: 69: TRISA = 0x3B;
  1894  077F  303B               	movlw	59
  1895  0780  0021               	movlb	1	; select bank1
  1896  0781  008C               	movwf	12	;volatile
  1897                           
  1898                           ;pin_manager.c: 74: ANSELA = 0x11;
  1899  0782  3011               	movlw	17
  1900  0783  0023               	movlb	3	; select bank3
  1901  0784  008C               	movwf	12	;volatile
  1902                           
  1903                           ;pin_manager.c: 79: WPUA = 0x00;
  1904  0785  0024               	movlb	4	; select bank4
  1905  0786  018C               	clrf	12	;volatile
  1906                           
  1907                           ;pin_manager.c: 80: OPTION_REGbits.nWPUEN = 1;
  1908  0787  0021               	movlb	1	; select bank1
  1909  0788  1795               	bsf	21,7	;volatile
  1910                           
  1911                           ;pin_manager.c: 87: APFCON = 0x00;
  1912  0789  0022               	movlb	2	; select bank2
  1913  078A  019D               	clrf	29	;volatile
  1914                           
  1915                           ;pin_manager.c: 93: IOCAFbits.IOCAF1 = 0;
  1916  078B  0027               	movlb	7	; select bank7
  1917  078C  1093               	bcf	19,1	;volatile
  1918                           
  1919                           ;pin_manager.c: 95: IOCANbits.IOCAN1 = 0;
  1920  078D  1092               	bcf	18,1	;volatile
  1921                           
  1922                           ;pin_manager.c: 97: IOCAPbits.IOCAP1 = 0;
  1923  078E  1091               	bcf	17,1	;volatile
  1924                           
  1925                           ;pin_manager.c: 102: IOCAF1_SetInterruptHandler(IOCAF1_DefaultInterruptHandler);
  1926  078F  3000               	movlw	0
  1927  0790  00F0               	movwf	IOCAF1_SetInterruptHandler@InterruptHandler
  1928  0791  3000               	movlw	0
  1929  0792  00F1               	movwf	IOCAF1_SetInterruptHandler@InterruptHandler+1
  1930  0793  271C               	fcall	_IOCAF1_SetInterruptHandler
  1931  0794  0008               	return
  1932  0795                     __end_of_PIN_MANAGER_Initialize:	
  1933                           
  1934                           	psect	text6
  1935  071C                     __ptext6:	
  1936 ;; *************** function _IOCAF1_SetInterruptHandler *****************
  1937 ;; Defined at:
  1938 ;;		line 134 in file "mcc_generated_files/pin_manager.c"
  1939 ;; Parameters:    Size  Location     Type
  1940 ;;  InterruptHan    2    0[COMMON] PTR FTN()void 
  1941 ;;		 -> IOCAF1_DefaultInterruptHandler(0), 
  1942 ;; Auto vars:     Size  Location     Type
  1943 ;;		None
  1944 ;; Return value:  Size  Location     Type
  1945 ;;		None               void
  1946 ;; Registers used:
  1947 ;;		wreg
  1948 ;; Tracked objects:
  1949 ;;		On entry : 0/0
  1950 ;;		On exit  : 0/0
  1951 ;;		Unchanged: 0/0
  1952 ;; Data sizes:     COMMON   BANK0   BANK1
  1953 ;;      Params:         2       0       0
  1954 ;;      Locals:         0       0       0
  1955 ;;      Temps:          0       0       0
  1956 ;;      Totals:         2       0       0
  1957 ;;Total ram usage:        2 bytes
  1958 ;; Hardware stack levels used:    1
  1959 ;; This function calls:
  1960 ;;		Nothing
  1961 ;; This function is called by:
  1962 ;;		_PIN_MANAGER_Initialize
  1963 ;; This function uses a non-reentrant model
  1964 ;;
  1965                           
  1966                           
  1967                           ;psect for function _IOCAF1_SetInterruptHandler
  1968  071C                     _IOCAF1_SetInterruptHandler:	
  1969                           
  1970                           ;pin_manager.c: 135: IOCAF1_InterruptHandler = InterruptHandler;
  1971                           
  1972                           ;incstack = 0
  1973                           ; Regs used in _IOCAF1_SetInterruptHandler: [wreg]
  1974  071C  0871               	movf	IOCAF1_SetInterruptHandler@InterruptHandler+1,w
  1975  071D  00FA               	movwf	_IOCAF1_InterruptHandler+1
  1976  071E  0870               	movf	IOCAF1_SetInterruptHandler@InterruptHandler,w
  1977  071F  00F9               	movwf	_IOCAF1_InterruptHandler
  1978  0720  0008               	return
  1979  0721                     __end_of_IOCAF1_SetInterruptHandler:	
  1980                           
  1981                           	psect	text7
  1982  0721                     __ptext7:	
  1983 ;; *************** function _OSCILLATOR_Initialize *****************
  1984 ;; Defined at:
  1985 ;;		line 65 in file "mcc_generated_files/mcc.c"
  1986 ;; Parameters:    Size  Location     Type
  1987 ;;		None
  1988 ;; Auto vars:     Size  Location     Type
  1989 ;;		None
  1990 ;; Return value:  Size  Location     Type
  1991 ;;		None               void
  1992 ;; Registers used:
  1993 ;;		wreg, status,2
  1994 ;; Tracked objects:
  1995 ;;		On entry : 0/0
  1996 ;;		On exit  : 0/0
  1997 ;;		Unchanged: 0/0
  1998 ;; Data sizes:     COMMON   BANK0   BANK1
  1999 ;;      Params:         0       0       0
  2000 ;;      Locals:         0       0       0
  2001 ;;      Temps:          0       0       0
  2002 ;;      Totals:         0       0       0
  2003 ;;Total ram usage:        0 bytes
  2004 ;; Hardware stack levels used:    1
  2005 ;; This function calls:
  2006 ;;		Nothing
  2007 ;; This function is called by:
  2008 ;;		_SYSTEM_Initialize
  2009 ;; This function uses a non-reentrant model
  2010 ;;
  2011                           
  2012                           
  2013                           ;psect for function _OSCILLATOR_Initialize
  2014  0721                     _OSCILLATOR_Initialize:	
  2015                           
  2016                           ;mcc.c: 68: OSCCON = 0x70;
  2017                           
  2018                           ;incstack = 0
  2019                           ; Regs used in _OSCILLATOR_Initialize: [wreg+status,2]
  2020  0721  3070               	movlw	112
  2021  0722  0021               	movlb	1	; select bank1
  2022  0723  0099               	movwf	25	;volatile
  2023                           
  2024                           ;mcc.c: 70: OSCTUNE = 0x00;
  2025  0724  0198               	clrf	24	;volatile
  2026                           
  2027                           ;mcc.c: 72: BORCON = 0x00;
  2028  0725  0022               	movlb	2	; select bank2
  2029  0726  0196               	clrf	22	;volatile
  2030  0727  0008               	return
  2031  0728                     __end_of_OSCILLATOR_Initialize:	
  2032                           
  2033                           	psect	text8
  2034  070F                     __ptext8:	
  2035 ;; *************** function _FVR_Initialize *****************
  2036 ;; Defined at:
  2037 ;;		line 58 in file "mcc_generated_files/fvr.c"
  2038 ;; Parameters:    Size  Location     Type
  2039 ;;		None
  2040 ;; Auto vars:     Size  Location     Type
  2041 ;;		None
  2042 ;; Return value:  Size  Location     Type
  2043 ;;		None               void
  2044 ;; Registers used:
  2045 ;;		wreg
  2046 ;; Tracked objects:
  2047 ;;		On entry : 0/0
  2048 ;;		On exit  : 0/0
  2049 ;;		Unchanged: 0/0
  2050 ;; Data sizes:     COMMON   BANK0   BANK1
  2051 ;;      Params:         0       0       0
  2052 ;;      Locals:         0       0       0
  2053 ;;      Temps:          0       0       0
  2054 ;;      Totals:         0       0       0
  2055 ;;Total ram usage:        0 bytes
  2056 ;; Hardware stack levels used:    1
  2057 ;; This function calls:
  2058 ;;		Nothing
  2059 ;; This function is called by:
  2060 ;;		_SYSTEM_Initialize
  2061 ;; This function uses a non-reentrant model
  2062 ;;
  2063                           
  2064                           
  2065                           ;psect for function _FVR_Initialize
  2066  070F                     _FVR_Initialize:	
  2067                           
  2068                           ;fvr.c: 61: FVRCON = 0xA3;
  2069                           
  2070                           ;incstack = 0
  2071                           ; Regs used in _FVR_Initialize: [wreg]
  2072  070F  30A3               	movlw	163
  2073  0710  0022               	movlb	2	; select bank2
  2074  0711  0097               	movwf	23	;volatile
  2075  0712  0008               	return
  2076  0713                     __end_of_FVR_Initialize:	
  2077                           
  2078                           	psect	text9
  2079  0738                     __ptext9:	
  2080 ;; *************** function _EXT_INT_Initialize *****************
  2081 ;; Defined at:
  2082 ;;		line 59 in file "mcc_generated_files/ext_int.c"
  2083 ;; Parameters:    Size  Location     Type
  2084 ;;		None
  2085 ;; Auto vars:     Size  Location     Type
  2086 ;;		None
  2087 ;; Return value:  Size  Location     Type
  2088 ;;		None               void
  2089 ;; Registers used:
  2090 ;;		wreg, status,2, status,0, pclath, cstack
  2091 ;; Tracked objects:
  2092 ;;		On entry : 0/0
  2093 ;;		On exit  : 0/0
  2094 ;;		Unchanged: 0/0
  2095 ;; Data sizes:     COMMON   BANK0   BANK1
  2096 ;;      Params:         0       0       0
  2097 ;;      Locals:         0       0       0
  2098 ;;      Temps:          0       0       0
  2099 ;;      Totals:         0       0       0
  2100 ;;Total ram usage:        0 bytes
  2101 ;; Hardware stack levels used:    1
  2102 ;; Hardware stack levels required when called:    1
  2103 ;; This function calls:
  2104 ;;		_INT_SetInterruptHandler
  2105 ;; This function is called by:
  2106 ;;		_SYSTEM_Initialize
  2107 ;; This function uses a non-reentrant model
  2108 ;;
  2109                           
  2110                           
  2111                           ;psect for function _EXT_INT_Initialize
  2112  0738                     _EXT_INT_Initialize:	
  2113                           
  2114                           ;ext_int.c: 64: (INTCONbits.INTF = 0);
  2115                           
  2116                           ;incstack = 0
  2117                           ; Regs used in _EXT_INT_Initialize: [wreg+status,2+status,0+pclath+cstack]
  2118  0738  108B               	bcf	11,1	;volatile
  2119                           
  2120                           ;ext_int.c: 65: (OPTION_REGbits.INTEDG = 1);
  2121  0739  0021               	movlb	1	; select bank1
  2122  073A  1715               	bsf	21,6	;volatile
  2123                           
  2124                           ;ext_int.c: 67: INT_SetInterruptHandler(INT_DefaultInterruptHandler);
  2125  073B  3000               	movlw	0
  2126  073C  00F0               	movwf	INT_SetInterruptHandler@InterruptHandler
  2127  073D  3000               	movlw	0
  2128  073E  00F1               	movwf	INT_SetInterruptHandler@InterruptHandler+1
  2129  073F  2717               	fcall	_INT_SetInterruptHandler
  2130                           
  2131                           ;ext_int.c: 68: (INTCONbits.INTE = 1);
  2132  0740  160B               	bsf	11,4	;volatile
  2133  0741  0008               	return
  2134  0742                     __end_of_EXT_INT_Initialize:	
  2135                           
  2136                           	psect	text10
  2137  0717                     __ptext10:	
  2138 ;; *************** function _INT_SetInterruptHandler *****************
  2139 ;; Defined at:
  2140 ;;		line 50 in file "mcc_generated_files/ext_int.c"
  2141 ;; Parameters:    Size  Location     Type
  2142 ;;  InterruptHan    2    0[COMMON] PTR FTN()void 
  2143 ;;		 -> INT_DefaultInterruptHandler(0), 
  2144 ;; Auto vars:     Size  Location     Type
  2145 ;;		None
  2146 ;; Return value:  Size  Location     Type
  2147 ;;		None               void
  2148 ;; Registers used:
  2149 ;;		wreg
  2150 ;; Tracked objects:
  2151 ;;		On entry : 0/0
  2152 ;;		On exit  : 0/0
  2153 ;;		Unchanged: 0/0
  2154 ;; Data sizes:     COMMON   BANK0   BANK1
  2155 ;;      Params:         2       0       0
  2156 ;;      Locals:         0       0       0
  2157 ;;      Temps:          0       0       0
  2158 ;;      Totals:         2       0       0
  2159 ;;Total ram usage:        2 bytes
  2160 ;; Hardware stack levels used:    1
  2161 ;; This function calls:
  2162 ;;		Nothing
  2163 ;; This function is called by:
  2164 ;;		_EXT_INT_Initialize
  2165 ;; This function uses a non-reentrant model
  2166 ;;
  2167                           
  2168                           
  2169                           ;psect for function _INT_SetInterruptHandler
  2170  0717                     _INT_SetInterruptHandler:	
  2171                           
  2172                           ;ext_int.c: 51: INT_InterruptHandler = InterruptHandler;
  2173                           
  2174                           ;incstack = 0
  2175                           ; Regs used in _INT_SetInterruptHandler: [wreg]
  2176  0717  0871               	movf	INT_SetInterruptHandler@InterruptHandler+1,w
  2177  0718  00F8               	movwf	_INT_InterruptHandler+1
  2178  0719  0870               	movf	INT_SetInterruptHandler@InterruptHandler,w
  2179  071A  00F7               	movwf	_INT_InterruptHandler
  2180  071B  0008               	return
  2181  071C                     __end_of_INT_SetInterruptHandler:	
  2182                           
  2183                           	psect	text11
  2184  074C                     __ptext11:	
  2185 ;; *************** function _EPWM_Initialize *****************
  2186 ;; Defined at:
  2187 ;;		line 64 in file "mcc_generated_files/epwm.c"
  2188 ;; Parameters:    Size  Location     Type
  2189 ;;		None
  2190 ;; Auto vars:     Size  Location     Type
  2191 ;;		None
  2192 ;; Return value:  Size  Location     Type
  2193 ;;		None               void
  2194 ;; Registers used:
  2195 ;;		wreg, status,2
  2196 ;; Tracked objects:
  2197 ;;		On entry : 0/0
  2198 ;;		On exit  : 0/0
  2199 ;;		Unchanged: 0/0
  2200 ;; Data sizes:     COMMON   BANK0   BANK1
  2201 ;;      Params:         0       0       0
  2202 ;;      Locals:         0       0       0
  2203 ;;      Temps:          0       0       0
  2204 ;;      Totals:         0       0       0
  2205 ;;Total ram usage:        0 bytes
  2206 ;; Hardware stack levels used:    1
  2207 ;; This function calls:
  2208 ;;		Nothing
  2209 ;; This function is called by:
  2210 ;;		_SYSTEM_Initialize
  2211 ;; This function uses a non-reentrant model
  2212 ;;
  2213                           
  2214                           
  2215                           ;psect for function _EPWM_Initialize
  2216  074C                     _EPWM_Initialize:	
  2217                           
  2218                           ;epwm.c: 69: CCP1CON = 0x3C;
  2219                           
  2220                           ;incstack = 0
  2221                           ; Regs used in _EPWM_Initialize: [wreg+status,2]
  2222  074C  303C               	movlw	60
  2223  074D  0025               	movlb	5	; select bank5
  2224  074E  0093               	movwf	19	;volatile
  2225                           
  2226                           ;epwm.c: 72: ECCP1AS = 0x00;
  2227  074F  0195               	clrf	21	;volatile
  2228                           
  2229                           ;epwm.c: 75: PWM1CON = 0x80;
  2230  0750  3080               	movlw	128
  2231  0751  0094               	movwf	20	;volatile
  2232                           
  2233                           ;epwm.c: 78: PSTR1CON = 0x01;
  2234  0752  3001               	movlw	1
  2235  0753  0096               	movwf	22	;volatile
  2236                           
  2237                           ;epwm.c: 81: CCPR1H = 0x00;
  2238  0754  0192               	clrf	18	;volatile
  2239                           
  2240                           ;epwm.c: 84: CCPR1L = 0x7F;
  2241  0755  307F               	movlw	127
  2242  0756  0091               	movwf	17	;volatile
  2243  0757  0008               	return
  2244  0758                     __end_of_EPWM_Initialize:	
  2245                           
  2246                           	psect	text12
  2247  0728                     __ptext12:	
  2248 ;; *************** function _ADC_Initialize *****************
  2249 ;; Defined at:
  2250 ;;		line 65 in file "mcc_generated_files/adc.c"
  2251 ;; Parameters:    Size  Location     Type
  2252 ;;		None
  2253 ;; Auto vars:     Size  Location     Type
  2254 ;;		None
  2255 ;; Return value:  Size  Location     Type
  2256 ;;		None               void
  2257 ;; Registers used:
  2258 ;;		wreg, status,2
  2259 ;; Tracked objects:
  2260 ;;		On entry : 0/0
  2261 ;;		On exit  : 0/0
  2262 ;;		Unchanged: 0/0
  2263 ;; Data sizes:     COMMON   BANK0   BANK1
  2264 ;;      Params:         0       0       0
  2265 ;;      Locals:         0       0       0
  2266 ;;      Temps:          0       0       0
  2267 ;;      Totals:         0       0       0
  2268 ;;Total ram usage:        0 bytes
  2269 ;; Hardware stack levels used:    1
  2270 ;; This function calls:
  2271 ;;		Nothing
  2272 ;; This function is called by:
  2273 ;;		_SYSTEM_Initialize
  2274 ;; This function uses a non-reentrant model
  2275 ;;
  2276                           
  2277                           
  2278                           ;psect for function _ADC_Initialize
  2279  0728                     _ADC_Initialize:	
  2280                           
  2281                           ;adc.c: 70: ADCON0 = 0x01;
  2282                           
  2283                           ;incstack = 0
  2284                           ; Regs used in _ADC_Initialize: [wreg+status,2]
  2285  0728  3001               	movlw	1
  2286  0729  0021               	movlb	1	; select bank1
  2287  072A  009D               	movwf	29	;volatile
  2288                           
  2289                           ;adc.c: 73: ADCON1 = 0x93;
  2290  072B  3093               	movlw	147
  2291  072C  009E               	movwf	30	;volatile
  2292                           
  2293                           ;adc.c: 76: ADRESL = 0x00;
  2294  072D  019B               	clrf	27	;volatile
  2295                           
  2296                           ;adc.c: 79: ADRESH = 0x00;
  2297  072E  019C               	clrf	28	;volatile
  2298  072F  0008               	return
  2299  0730                     __end_of_ADC_Initialize:	
  2300                           
  2301                           	psect	text13
  2302  0766                     __ptext13:	
  2303 ;; *************** function _EPWM_LoadDutyValue *****************
  2304 ;; Defined at:
  2305 ;;		line 88 in file "mcc_generated_files/epwm.c"
  2306 ;; Parameters:    Size  Location     Type
  2307 ;;  dutyValue       2    0[COMMON] unsigned int 
  2308 ;; Auto vars:     Size  Location     Type
  2309 ;;		None
  2310 ;; Return value:  Size  Location     Type
  2311 ;;		None               void
  2312 ;; Registers used:
  2313 ;;		wreg, status,2, status,0
  2314 ;; Tracked objects:
  2315 ;;		On entry : 0/0
  2316 ;;		On exit  : 0/0
  2317 ;;		Unchanged: 0/0
  2318 ;; Data sizes:     COMMON   BANK0   BANK1
  2319 ;;      Params:         2       0       0
  2320 ;;      Locals:         0       0       0
  2321 ;;      Temps:          2       0       0
  2322 ;;      Totals:         4       0       0
  2323 ;;Total ram usage:        4 bytes
  2324 ;; Hardware stack levels used:    1
  2325 ;; This function calls:
  2326 ;;		Nothing
  2327 ;; This function is called by:
  2328 ;;		_main
  2329 ;; This function uses a non-reentrant model
  2330 ;;
  2331                           
  2332                           
  2333                           ;psect for function _EPWM_LoadDutyValue
  2334  0766                     _EPWM_LoadDutyValue:	
  2335                           
  2336                           ;epwm.c: 91: CCPR1L = ((dutyValue & 0x03FC)>>2);
  2337                           
  2338                           ;incstack = 0
  2339                           ; Regs used in _EPWM_LoadDutyValue: [wreg+status,2+status,0]
  2340  0766  0871               	movf	EPWM_LoadDutyValue@dutyValue+1,w
  2341  0767  00F3               	movwf	??_EPWM_LoadDutyValue+1
  2342  0768  0870               	movf	EPWM_LoadDutyValue@dutyValue,w
  2343  0769  00F2               	movwf	??_EPWM_LoadDutyValue
  2344  076A  36F3               	lsrf	??_EPWM_LoadDutyValue+1,f
  2345  076B  0CF2               	rrf	??_EPWM_LoadDutyValue,f
  2346  076C  36F3               	lsrf	??_EPWM_LoadDutyValue+1,f
  2347  076D  0CF2               	rrf	??_EPWM_LoadDutyValue,f
  2348  076E  0872               	movf	??_EPWM_LoadDutyValue,w
  2349  076F  0025               	movlb	5	; select bank5
  2350  0770  0091               	movwf	17	;volatile
  2351                           
  2352                           ;epwm.c: 94: CCP1CON = ((uint8_t)(CCP1CON & 0xCF) | ((dutyValue & 0x0003)<<4));
  2353  0771  0870               	movf	EPWM_LoadDutyValue@dutyValue,w
  2354  0772  3903               	andlw	3
  2355  0773  00F2               	movwf	??_EPWM_LoadDutyValue
  2356  0774  3004               	movlw	4
  2357  0775                     u225:	
  2358  0775  35F2               	lslf	??_EPWM_LoadDutyValue,f
  2359  0776  0B89               	decfsz	9,f
  2360  0777  2F75               	goto	u225
  2361  0778  0813               	movf	19,w	;volatile
  2362  0779  39CF               	andlw	207
  2363  077A  0472               	iorwf	??_EPWM_LoadDutyValue,w
  2364  077B  0093               	movwf	19	;volatile
  2365  077C  0008               	return
  2366  077D                     __end_of_EPWM_LoadDutyValue:	
  2367                           
  2368                           	psect	text14
  2369  07C9                     __ptext14:	
  2370 ;; *************** function _Calabrate_Chrage_Pwm *****************
  2371 ;; Defined at:
  2372 ;;		line 102 in file "main.c"
  2373 ;; Parameters:    Size  Location     Type
  2374 ;;		None
  2375 ;; Auto vars:     Size  Location     Type
  2376 ;;  Batt_Voltage    2    5[COMMON] unsigned int 
  2377 ;; Return value:  Size  Location     Type
  2378 ;;		None               void
  2379 ;; Registers used:
  2380 ;;		wreg, fsr0l, fsr0h, status,2, status,0, pclath, cstack
  2381 ;; Tracked objects:
  2382 ;;		On entry : 0/0
  2383 ;;		On exit  : 0/0
  2384 ;;		Unchanged: 0/0
  2385 ;; Data sizes:     COMMON   BANK0   BANK1
  2386 ;;      Params:         0       0       0
  2387 ;;      Locals:         2       0       0
  2388 ;;      Temps:          1       0       0
  2389 ;;      Totals:         3       0       0
  2390 ;;Total ram usage:        3 bytes
  2391 ;; Hardware stack levels used:    1
  2392 ;; Hardware stack levels required when called:    1
  2393 ;; This function calls:
  2394 ;;		_ADC_GetConversion
  2395 ;; This function is called by:
  2396 ;;		_main
  2397 ;; This function uses a non-reentrant model
  2398 ;;
  2399                           
  2400                           
  2401                           ;psect for function _Calabrate_Chrage_Pwm
  2402  07C9                     _Calabrate_Chrage_Pwm:	
  2403                           
  2404                           ;main.c: 104: uint16_t Batt_Voltage = 0;
  2405                           
  2406                           ;incstack = 0
  2407                           ; Regs used in _Calabrate_Chrage_Pwm: [wreg-fsr0h+status,2+status,0+pclath+cstack]
  2408  07C9  01F5               	clrf	Calabrate_Chrage_Pwm@Batt_Voltage
  2409  07CA  01F6               	clrf	Calabrate_Chrage_Pwm@Batt_Voltage+1
  2410                           
  2411                           ;main.c: 107: Batt_Voltage = ADC_GetConversion(channel_AN0);
  2412  07CB  3000               	movlw	0
  2413  07CC  2795               	fcall	_ADC_GetConversion
  2414  07CD  0871               	movf	?_ADC_GetConversion+1,w
  2415  07CE  00F6               	movwf	Calabrate_Chrage_Pwm@Batt_Voltage+1
  2416  07CF  0870               	movf	?_ADC_GetConversion,w
  2417  07D0  00F5               	movwf	Calabrate_Chrage_Pwm@Batt_Voltage
  2418                           
  2419                           ;main.c: 109: if(Batt_Voltage <= 5500)
  2420  07D1  3015               	movlw	21
  2421  07D2  0276               	subwf	Calabrate_Chrage_Pwm@Batt_Voltage+1,w
  2422  07D3  307D               	movlw	125
  2423  07D4  1903               	skipnz
  2424  07D5  0275               	subwf	Calabrate_Chrage_Pwm@Batt_Voltage,w
  2425  07D6  1803               	skipnc
  2426  07D7  2FDA               	goto	l1187
  2427                           
  2428                           ;main.c: 110: {
  2429                           ;main.c: 111: Batt_Status = e_Batt_Dead;
  2430  07D8  01FC               	clrf	_Batt_Status
  2431                           
  2432                           ;main.c: 112: }else if(Batt_Voltage > 5500 || Batt_Voltage <= 40000)
  2433  07D9  2FF6               	goto	l1197
  2434  07DA                     l1187:	
  2435  07DA  3015               	movlw	21
  2436  07DB  0276               	subwf	Calabrate_Chrage_Pwm@Batt_Voltage+1,w
  2437  07DC  307D               	movlw	125
  2438  07DD  1903               	skipnz
  2439  07DE  0275               	subwf	Calabrate_Chrage_Pwm@Batt_Voltage,w
  2440  07DF  1803               	skipnc
  2441  07E0  2FE8               	goto	l311
  2442  07E1  309C               	movlw	156
  2443  07E2  0276               	subwf	Calabrate_Chrage_Pwm@Batt_Voltage+1,w
  2444  07E3  3041               	movlw	65
  2445  07E4  1903               	skipnz
  2446  07E5  0275               	subwf	Calabrate_Chrage_Pwm@Batt_Voltage,w
  2447  07E6  1803               	skipnc
  2448  07E7  2FEB               	goto	l1191
  2449  07E8                     l311:	
  2450                           
  2451                           ;main.c: 113: {
  2452                           ;main.c: 114: Batt_Status = e_Batt_Charge;
  2453  07E8  01FC               	clrf	_Batt_Status
  2454  07E9  0AFC               	incf	_Batt_Status,f
  2455                           
  2456                           ;main.c: 115: }
  2457  07EA  2FF6               	goto	l1197
  2458  07EB                     l1191:	
  2459                           
  2460                           ;main.c: 116: else if(Batt_Voltage > 40000)
  2461  07EB  309C               	movlw	156
  2462  07EC  0276               	subwf	Calabrate_Chrage_Pwm@Batt_Voltage+1,w
  2463  07ED  3041               	movlw	65
  2464  07EE  1903               	skipnz
  2465  07EF  0275               	subwf	Calabrate_Chrage_Pwm@Batt_Voltage,w
  2466  07F0  1C03               	skipc
  2467  07F1  2FF6               	goto	l1197
  2468                           
  2469                           ;main.c: 117: {
  2470                           ;main.c: 118: Batt_Status = e_Batt_Full;
  2471  07F2  3002               	movlw	2
  2472  07F3  00F4               	movwf	??_Calabrate_Chrage_Pwm
  2473  07F4  0874               	movf	??_Calabrate_Chrage_Pwm,w
  2474  07F5  00FC               	movwf	_Batt_Status
  2475  07F6                     l1197:	
  2476                           ;main.c: 127: }
  2477                           
  2478                           ;main.c: 126: break;
  2479                           
  2480                           ;main.c: 122: {
  2481                           ;main.c: 123: case 5500:
  2482                           
  2483                           ;main.c: 119: }
  2484                           ;main.c: 121: switch(Batt_Status)
  2485                           
  2486  07F6  087C               	movf	_Batt_Status,w
  2487                           
  2488                           ; Switch size 1, requested type "space"
  2489                           ; Number of cases is 1, Range of values is 124 to 124
  2490                           ; switch strategies available:
  2491                           ; Name         Instructions Cycles
  2492                           ; simple_byte            4     3 (average)
  2493                           ; direct_byte           11     9 (fixed)
  2494                           ; jumptable            263     9 (fixed)
  2495                           ;	Chosen strategy is simple_byte
  2496  07F7  3A7C               	xorlw	124	; case 124
  2497  07F8  1903               	skipnz
  2498  07F9  2FFB               	goto	l317
  2499  07FA  2FFB               	goto	l317
  2500  07FB                     l317:	
  2501  07FB  0008               	return
  2502  07FC                     __end_of_Calabrate_Chrage_Pwm:	
  2503                           
  2504                           	psect	text15
  2505  0795                     __ptext15:	
  2506 ;; *************** function _ADC_GetConversion *****************
  2507 ;; Defined at:
  2508 ;;		line 110 in file "mcc_generated_files/adc.c"
  2509 ;; Parameters:    Size  Location     Type
  2510 ;;  channel         1    wreg     enum E2216
  2511 ;; Auto vars:     Size  Location     Type
  2512 ;;  channel         1    3[COMMON] enum E2216
  2513 ;; Return value:  Size  Location     Type
  2514 ;;                  2    0[COMMON] unsigned int 
  2515 ;; Registers used:
  2516 ;;		wreg, status,2, status,0
  2517 ;; Tracked objects:
  2518 ;;		On entry : 0/0
  2519 ;;		On exit  : 0/0
  2520 ;;		Unchanged: 0/0
  2521 ;; Data sizes:     COMMON   BANK0   BANK1
  2522 ;;      Params:         2       0       0
  2523 ;;      Locals:         1       0       0
  2524 ;;      Temps:          1       0       0
  2525 ;;      Totals:         4       0       0
  2526 ;;Total ram usage:        4 bytes
  2527 ;; Hardware stack levels used:    1
  2528 ;; This function calls:
  2529 ;;		Nothing
  2530 ;; This function is called by:
  2531 ;;		_Calabrate_Chrage_Pwm
  2532 ;; This function uses a non-reentrant model
  2533 ;;
  2534                           
  2535                           
  2536                           ;psect for function _ADC_GetConversion
  2537  0795                     _ADC_GetConversion:	
  2538                           
  2539                           ;incstack = 0
  2540                           ; Regs used in _ADC_GetConversion: [wreg+status,2+status,0]
  2541                           ;ADC_GetConversion@channel stored from wreg
  2542  0795  00F3               	movwf	ADC_GetConversion@channel
  2543                           
  2544                           ;adc.c: 113: ADCON0bits.CHS = channel;
  2545  0796  0873               	movf	ADC_GetConversion@channel,w
  2546  0797  00F2               	movwf	??_ADC_GetConversion
  2547  0798  0DF2               	rlf	??_ADC_GetConversion,f
  2548  0799  0DF2               	rlf	??_ADC_GetConversion,f
  2549  079A  0021               	movlb	1	; select bank1
  2550  079B  081D               	movf	29,w	;volatile
  2551  079C  0672               	xorwf	??_ADC_GetConversion,w
  2552  079D  3983               	andlw	-125
  2553  079E  0672               	xorwf	??_ADC_GetConversion,w
  2554  079F  009D               	movwf	29	;volatile
  2555                           
  2556                           ;adc.c: 116: ADCON0bits.ADON = 1;
  2557  07A0  141D               	bsf	29,0	;volatile
  2558                           
  2559                           ;adc.c: 119: _delay((unsigned long)((5)*(8000000/4000000.0)));
  2560  07A1  3003               	movlw	3
  2561  07A2  00F2               	movwf	??_ADC_GetConversion
  2562  07A3                     u277:	
  2563  07A3  0BF2               	decfsz	??_ADC_GetConversion,f
  2564  07A4  2FA3               	goto	u277
  2565                           
  2566                           ;adc.c: 122: ADCON0bits.GO_nDONE = 1;
  2567  07A5  0021               	movlb	1	; select bank1
  2568  07A6  149D               	bsf	29,1	;volatile
  2569  07A7                     l145:	
  2570                           ;adc.c: 126: {
  2571                           
  2572                           ;adc.c: 125: while (ADCON0bits.GO_nDONE)
  2573                           
  2574  07A7  189D               	btfsc	29,1	;volatile
  2575  07A8  2FA7               	goto	l145
  2576                           
  2577                           ;adc.c: 127: }
  2578                           ;adc.c: 130: return ((adc_result_t)((ADRESH << 8) + ADRESL));
  2579  07A9  081C               	movf	28,w	;volatile
  2580  07AA  00F1               	movwf	?_ADC_GetConversion+1
  2581  07AB  081B               	movf	27,w	;volatile
  2582  07AC  00F0               	movwf	?_ADC_GetConversion
  2583  07AD  0008               	return
  2584  07AE                     __end_of_ADC_GetConversion:	
  2585  007E                     btemp	set	126	;btemp
  2586  007E                     wtemp	set	126
  2587  007E                     wtemp0	set	126
  2588  0080                     wtemp1	set	128
  2589  0082                     wtemp2	set	130
  2590  0084                     wtemp3	set	132
  2591  0086                     wtemp4	set	134
  2592  0088                     wtemp5	set	136
  2593  007F                     wtemp6	set	127
  2594  007E                     ttemp	set	126
  2595  007E                     ttemp0	set	126
  2596  0081                     ttemp1	set	129
  2597  0084                     ttemp2	set	132
  2598  0087                     ttemp3	set	135
  2599  007F                     ttemp4	set	127
  2600  007E                     ltemp	set	126
  2601  007E                     ltemp0	set	126
  2602  0082                     ltemp1	set	130
  2603  0086                     ltemp2	set	134
  2604  0080                     ltemp3	set	128


Data Sizes:
    Strings     0
    Constant    0
    Data        0
    BSS         2
    Persistent  5
    Stack       0

Auto Spaces:
    Space          Size  Autos    Used
    COMMON           14      7      14
    BANK0            80      0       0
    BANK1            32      0       0

Pointer List with Targets:

    IOCAF1_SetInterruptHandler@InterruptHandler	PTR FTN()void  size(2) Largest target is 0
		 -> IOCAF1_DefaultInterruptHandler(), 

    IOCAF1_InterruptHandler	PTR FTN()void  size(2) Largest target is 0
		 -> IOCAF1_DefaultInterruptHandler(), Absolute function(), 

    INT_SetInterruptHandler@InterruptHandler	PTR FTN()void  size(2) Largest target is 0
		 -> INT_DefaultInterruptHandler(), 

    INT_InterruptHandler	PTR FTN()void  size(2) Largest target is 0
		 -> INT_DefaultInterruptHandler(), Absolute function(), 


Critical Paths under _main in COMMON

    _main->_Calabrate_Chrage_Pwm
    _PIN_MANAGER_Initialize->_IOCAF1_SetInterruptHandler
    _EXT_INT_Initialize->_INT_SetInterruptHandler
    _Calabrate_Chrage_Pwm->_ADC_GetConversion

Critical Paths under _main in BANK0

    None.

Critical Paths under _main in BANK1

    None.

Call Graph Tables:

 ---------------------------------------------------------------------------------
 (Depth) Function   	        Calls       Base Space   Used Autos Params    Refs
 ---------------------------------------------------------------------------------
 (0) _main                                                 0     0      0     392
               _Calabrate_Chrage_Pwm
                 _EPWM_LoadDutyValue
                  _SYSTEM_Initialize
 ---------------------------------------------------------------------------------
 (1) _SYSTEM_Initialize                                    0     0      0     172
                     _ADC_Initialize
                    _EPWM_Initialize
                 _EXT_INT_Initialize
                     _FVR_Initialize
              _OSCILLATOR_Initialize
             _PIN_MANAGER_Initialize
                    _TMR0_Initialize
                    _TMR2_Initialize
                     _WDT_Initialize
 ---------------------------------------------------------------------------------
 (2) _WDT_Initialize                                       0     0      0       0
 ---------------------------------------------------------------------------------
 (2) _TMR2_Initialize                                      0     0      0       0
 ---------------------------------------------------------------------------------
 (2) _TMR0_Initialize                                      1     1      0       0
                                              0 COMMON     1     1      0
 ---------------------------------------------------------------------------------
 (2) _PIN_MANAGER_Initialize                               0     0      0      86
         _IOCAF1_SetInterruptHandler
 ---------------------------------------------------------------------------------
 (3) _IOCAF1_SetInterruptHandler                           2     0      2      86
                                              0 COMMON     2     0      2
 ---------------------------------------------------------------------------------
 (2) _OSCILLATOR_Initialize                                0     0      0       0
 ---------------------------------------------------------------------------------
 (2) _FVR_Initialize                                       0     0      0       0
 ---------------------------------------------------------------------------------
 (2) _EXT_INT_Initialize                                   0     0      0      86
            _INT_SetInterruptHandler
 ---------------------------------------------------------------------------------
 (3) _INT_SetInterruptHandler                              2     0      2      86
                                              0 COMMON     2     0      2
 ---------------------------------------------------------------------------------
 (2) _EPWM_Initialize                                      0     0      0       0
 ---------------------------------------------------------------------------------
 (2) _ADC_Initialize                                       0     0      0       0
 ---------------------------------------------------------------------------------
 (1) _EPWM_LoadDutyValue                                   4     2      2     108
                                              0 COMMON     4     2      2
 ---------------------------------------------------------------------------------
 (1) _Calabrate_Chrage_Pwm                                 3     3      0     112
                                              4 COMMON     3     3      0
                  _ADC_GetConversion
 ---------------------------------------------------------------------------------
 (2) _ADC_GetConversion                                    4     2      2      22
                                              0 COMMON     4     2      2
 ---------------------------------------------------------------------------------
 Estimated maximum stack depth 3
 ---------------------------------------------------------------------------------

 Call Graph Graphs:

 _main (ROOT)
   _Calabrate_Chrage_Pwm
     _ADC_GetConversion
   _EPWM_LoadDutyValue
   _SYSTEM_Initialize
     _ADC_Initialize
     _EPWM_Initialize
     _EXT_INT_Initialize
       _INT_SetInterruptHandler
     _FVR_Initialize
     _OSCILLATOR_Initialize
     _PIN_MANAGER_Initialize
       _IOCAF1_SetInterruptHandler
     _TMR0_Initialize
     _TMR2_Initialize
     _WDT_Initialize

 Address spaces:
Name               Size   Autos  Total    Cost      Usage
BIGRAM              70      0       0       0        0.0%
EEDATA             100      0       0       0        0.0%
NULL                 0      0       0       0        0.0%
CODE                 0      0       0       0        0.0%
BITCOMMON            E      0       0       1        0.0%
BITSFR0              0      0       0       1        0.0%
SFR0                 0      0       0       1        0.0%
COMMON               E      7       E       2      100.0%
BITSFR1              0      0       0       2        0.0%
SFR1                 0      0       0       2        0.0%
BITSFR2              0      0       0       3        0.0%
SFR2                 0      0       0       3        0.0%
STACK                0      0       0       3        0.0%
BITSFR3              0      0       0       4        0.0%
SFR3                 0      0       0       4        0.0%
ABS                  0      0       E       4        0.0%
BITBANK0            50      0       0       5        0.0%
BITSFR4              0      0       0       5        0.0%
SFR4                 0      0       0       5        0.0%
BANK0               50      0       0       6        0.0%
BITSFR5              0      0       0       6        0.0%
SFR5                 0      0       0       6        0.0%
BITBANK1            20      0       0       7        0.0%
BITSFR6              0      0       0       7        0.0%
SFR6                 0      0       0       7        0.0%
BANK1               20      0       0       8        0.0%
BITSFR7              0      0       0       8        0.0%
SFR7                 0      0       0       8        0.0%
BITSFR8              0      0       0       9        0.0%
SFR8                 0      0       0       9        0.0%
DATA                 0      0       E       9        0.0%
BITSFR9              0      0       0      10        0.0%
SFR9                 0      0       0      10        0.0%
BITSFR10             0      0       0      11        0.0%
SFR10                0      0       0      11        0.0%
BITSFR11             0      0       0      12        0.0%
SFR11                0      0       0      12        0.0%
BITSFR12             0      0       0      13        0.0%
SFR12                0      0       0      13        0.0%
BITSFR13             0      0       0      14        0.0%
SFR13                0      0       0      14        0.0%
BITSFR14             0      0       0      15        0.0%
SFR14                0      0       0      15        0.0%
BITSFR15             0      0       0      16        0.0%
SFR15                0      0       0      16        0.0%
BITSFR16             0      0       0      17        0.0%
SFR16                0      0       0      17        0.0%
BITSFR17             0      0       0      18        0.0%
SFR17                0      0       0      18        0.0%
BITSFR18             0      0       0      19        0.0%
SFR18                0      0       0      19        0.0%
BITSFR19             0      0       0      20        0.0%
SFR19                0      0       0      20        0.0%
BITSFR20             0      0       0      21        0.0%
SFR20                0      0       0      21        0.0%
BITSFR21             0      0       0      22        0.0%
SFR21                0      0       0      22        0.0%
BITSFR22             0      0       0      23        0.0%
SFR22                0      0       0      23        0.0%
BITSFR23             0      0       0      24        0.0%
SFR23                0      0       0      24        0.0%
BITSFR24             0      0       0      25        0.0%
SFR24                0      0       0      25        0.0%
BITSFR25             0      0       0      26        0.0%
SFR25                0      0       0      26        0.0%
BITSFR26             0      0       0      27        0.0%
SFR26                0      0       0      27        0.0%
BITSFR27             0      0       0      28        0.0%
SFR27                0      0       0      28        0.0%
BITSFR28             0      0       0      29        0.0%
SFR28                0      0       0      29        0.0%
BITSFR29             0      0       0      30        0.0%
SFR29                0      0       0      30        0.0%
BITSFR30             0      0       0      31        0.0%
SFR30                0      0       0      31        0.0%
BITSFR31             0      0       0      32        0.0%
SFR31                0      0       0      32        0.0%


Microchip Technology PIC Macro Assembler V1.35 build -356382666 
Symbol Table                                                                                   Wed Jan 02 14:10:35 2019

                               __CFG_CP$OFF 0000                      __end_of_FVR_Initialize 0713  
                           _timer0ReloadVal 007B                                         l311 07E8  
                                       l145 07A7                                         l317 07FB  
                                       l297 07B6                                         u225 0775  
                                       _PR2 001B                                __CFG_CPD$OFF 0000  
                                       u277 07A3                             _TMR2_Initialize 0730  
                              __CFG_BORV$LO 0000                                         wreg 0009  
                              __CFG_LVP$OFF 0000                                        l1205 07B9  
                                      l1209 07BA                                        l1191 07EB  
                                      l1187 07DA                                        l1197 07F6  
                                      _LATA 010C                                        _TMR0 0015  
                                      _TMR2 001A                                        _WPUA 020C  
                              __CFG_WRT$OFF 0000                               __CFG_FCMEN$ON 0000  
                                      _main 07AE                                        btemp 007E  
                             __CFG_BOREN$ON 0000                 _INT_DefaultInterruptHandler 0000  
                                      ltemp 007E                                        start 0001  
                                      ttemp 007E                                        wtemp 007E  
                             __CFG_IESO$OFF 0000             __end_of_INT_SetInterruptHandler 071C  
                   __end_of_TMR0_Initialize 0766                             ?_FVR_Initialize 0070  
            __size_of_OSCILLATOR_Initialize 0007               __end_of_OSCILLATOR_Initialize 0728  
                                     ?_main 0070                               __CFG_WDTE$OFF 0000  
                                     _T2CON 001C                                       _TRISA 008C  
                               _Batt_Status 007C                __end_of_Calabrate_Chrage_Pwm 07FC  
                            _WDT_Initialize 0713                                       ltemp0 007E  
                                     ltemp1 0082                                       ltemp2 0086  
                                     ltemp3 0080                                       ttemp0 007E  
                                     ttemp1 0081                                       ttemp2 0084  
                                     ttemp3 0087                                       ttemp4 007F  
                                     wtemp0 007E                                       wtemp1 0080  
                                     wtemp2 0082                                       wtemp3 0084  
                                     wtemp4 0086                                       wtemp5 0088  
                                     wtemp6 007F                              __CFG_MCLRE$OFF 0000  
                           __initialization 07FC                                __end_of_main 07C9  
                   __end_of_TMR2_Initialize 0738                                      ??_main 0077  
                            __CFG_PLLEN$OFF 0000                      __end_of_WDT_Initialize 0717  
          Calabrate_Chrage_Pwm@Batt_Voltage 0075                                      _ADCON0 009D  
                                    _ADCON1 009E                                      _ADRESH 009C  
                                    _EEADRH 0192                                      _ADRESL 009B  
                                    _EEADRL 0191                                      _CCPR1H 0292  
                                    _EEDATH 0194                                      _CCPR1L 0291  
                                    _EEDATL 0193                                      _EECON2 0196  
                                    _APFCON 011D                                      _ANSELA 018C  
                                    _BORCON 0116                                      _FVRCON 0117  
                                    _OSCCON 0099                                      _WDTCON 0097  
                            __CFG_PWRTE$OFF 0000                              __CFG_STVREN$ON 0000  
                          ?_TMR0_Initialize 0070                    __size_of_EPWM_Initialize 000C  
                           ?_WDT_Initialize 0070                    ADC_GetConversion@channel 0073  
          __size_of_INT_SetInterruptHandler 0005  IOCAF1_SetInterruptHandler@InterruptHandler 0070  
   INT_SetInterruptHandler@InterruptHandler 0070                 __size_of_EPWM_LoadDutyValue 0017  
                         _SYSTEM_Initialize 0742                     __end_of__initialization 07FE  
            _IOCAF1_DefaultInterruptHandler 0000                          ?_SYSTEM_Initialize 0070  
                            __pcstackCOMMON 0070                         ??_SYSTEM_Initialize 0072  
                      _Calabrate_Chrage_Pwm 07C9                            ?_TMR2_Initialize 0070  
               __size_of_EXT_INT_Initialize 000A                              _OPTION_REGbits 0095  
                 __end_of_SYSTEM_Initialize 074C                                  __pnvCOMMON 0077  
                          ??_FVR_Initialize 0070                                  __pmaintext 07AE  
                     ?_Calabrate_Chrage_Pwm 0070                                     _CCP1CON 0293  
                                   _ECCP1AS 0295                     __size_of_ADC_Initialize 0008  
                                   _OSCTUNE 0098                                     _PWM1CON 0294  
                         ??_EPWM_Initialize 0070                                     __ptext1 0742  
                                   __ptext2 0713                                     __ptext3 0730  
                                   __ptext4 0758                                     __ptext5 077D  
                                   __ptext6 071C                                     __ptext7 0721  
                                   __ptext8 070F                                     __ptext9 0738  
                     _OSCILLATOR_Initialize 0721                                   _T2CONbits 001C  
                  ??_PIN_MANAGER_Initialize 0072                                   _IOCAFbits 0393  
                   _INT_SetInterruptHandler 0717                                   _IOCANbits 0392  
                                 _IOCAPbits 0391                  __size_of_SYSTEM_Initialize 000A  
                      end_of_initialization 07FE                 EPWM_LoadDutyValue@dutyValue 0070  
                    ??_Calabrate_Chrage_Pwm 0074                            ??_WDT_Initialize 0070  
                          __CFG_FOSC$INTOSC 0000                ??_IOCAF1_SetInterruptHandler 0072  
       __size_of_IOCAF1_SetInterruptHandler 0005                              _ADC_Initialize 0728  
                    ?_OSCILLATOR_Initialize 0070                   ??_INT_SetInterruptHandler 0072  
                       start_initialization 07FC                    __size_of_TMR0_Initialize 000E  
           __size_of_PIN_MANAGER_Initialize 0018                  __end_of_EPWM_LoadDutyValue 077D  
                              _CurrentState 007D                      __end_of_ADC_Initialize 0730  
                __end_of_EXT_INT_Initialize 0742                             _EPWM_Initialize 074C  
                               __pbssCOMMON 007C                                   ___latbits 0000  
                  __size_of_TMR2_Initialize 0008                     _IOCAF1_InterruptHandler 0079  
                    _PIN_MANAGER_Initialize 077D                             ?_ADC_Initialize 0070  
        __end_of_IOCAF1_SetInterruptHandler 0721                  _IOCAF1_SetInterruptHandler 071C  
                         ??_TMR0_Initialize 0070                                    _PIR1bits 0011  
                                  _PSTR1CON 0296                     __end_of_EPWM_Initialize 0758  
                                _ADCON0bits 009D                     __size_of_FVR_Initialize 0004  
                         ??_TMR2_Initialize 0070                                  _EECON1bits 0195  
                         _ADC_GetConversion 0795               __size_of_Calabrate_Chrage_Pwm 0033  
                   ??_OSCILLATOR_Initialize 0070                          ?_ADC_GetConversion 0070  
                       ??_ADC_GetConversion 0072                                    __ptext10 0717  
                                  __ptext11 074C                                    __ptext12 0728  
                                  __ptext13 0766                                    __ptext14 07C9  
                                  __ptext15 0795                               __size_of_main 001B  
                 __end_of_ADC_GetConversion 07AE                          _EPWM_LoadDutyValue 0766  
                          ?_EPWM_Initialize 0070                         ?_EPWM_LoadDutyValue 0070  
                                _INTCONbits 000B                                  _FVRCONbits 0117  
                      _INT_InterruptHandler 0077                          _EXT_INT_Initialize 0738  
                   __size_of_WDT_Initialize 0004                        ??_EPWM_LoadDutyValue 0072  
                   ?_PIN_MANAGER_Initialize 0070                           __CFG_CLKOUTEN$OFF 0000  
                       ?_EXT_INT_Initialize 0070                            ??_ADC_Initialize 0070  
                  ?_INT_SetInterruptHandler 0070                              _FVR_Initialize 070F  
                      ??_EXT_INT_Initialize 0072                                  _OPTION_REG 0095  
                           _TMR0_Initialize 0758                 ?_IOCAF1_SetInterruptHandler 0070  
            __end_of_PIN_MANAGER_Initialize 0795                  __size_of_ADC_GetConversion 0019  
